Información de ensamblado, linkeo y carga (generado por el CeIASMAssemblerLinkerAndLoader)

----------- Límite de carga de las secciones ----------------------------------------------

.CODE:  de locación          0 a locación       2781
.DATA:  de locación       2782 a locación       3045
.HEAP:  de locación       3046 a locación       3045
.STACK: de locación       8192 a locación       8191

----------- Resolución de etiquetas -------------------------------------------------------
Dirección   Etiqueta

         9  l_met_system_ctor
        16  l_met_system_read
        26  l_met_system_printi
        36  l_met_system_printc
        46  l_met_system_printb
        56  l_met_system_prints
        66  l_met_system_println
        74  l_met_system_printbln
        85  l_met_system_printcln
        96  l_met_system_printiln
       107  l_met_system_printsln
       118  l_simple_malloc
       135  l_simple_init_heap
       137  l_ctor_linkedbinarytree_linkedbinarytree
       151  l_met_linkedbinarytree_linkedbinarytree_init
       171  l_met_linkedbinarytree_size
       186  l_met_linkedbinarytree_isempty
       204  l_met_linkedbinarytree_replace
       247  l_met_linkedbinarytree_root
       270  l_endifthen_1_root_linkedbinarytree
       283  l_met_linkedbinarytree_parent
       302  l_endifthen_2_parent_linkedbinarytree
       322  l_met_linkedbinarytree_isinternal
       362  l_met_linkedbinarytree_isexternal
       388  l_met_linkedbinarytree_isroot
       406  l_met_linkedbinarytree_setroot
       460  l_endif_3_setroot_linkedbinarytree
       474  l_endelse_3_setroot_linkedbinarytree
       478  l_met_linkedbinarytree_addleft
       508  l_endifthen_4_addleft_linkedbinarytree
       578  l_met_linkedbinarytree_addright
       608  l_endifthen_5_addright_linkedbinarytree
       678  l_met_linkedbinarytree_left
       704  l_endifthen_6_left_linkedbinarytree
       724  l_met_linkedbinarytree_right
       750  l_endifthen_7_right_linkedbinarytree
       770  l_met_linkedbinarytree_hasleft
       795  l_met_linkedbinarytree_hasright
       820  l_ctor_linkedsearchbinarytree_linkedsearchbinarytree
       834  l_met_linkedsearchbinarytree_find
       901  l_endif_8_find_linkedsearchbinarytree
       911  l_endelse_8_find_linkedsearchbinarytree
       917  l_met_linkedsearchbinarytree_insert
       974  l_endif_9_insert_linkedsearchbinarytree
      1033  l_endelse_9_insert_linkedsearchbinarytree
      1039  l_met_linkedsearchbinarytree_remove
      1066  l_endifthen_10_remove_linkedsearchbinarytree
      1165  l_endif_12_remove_linkedsearchbinarytree
      1219  l_endif_13_remove_linkedsearchbinarytree
      1254  l_endelse_13_remove_linkedsearchbinarytree
      1255  l_endelse_12_remove_linkedsearchbinarytree
      1256  l_endifthen_11_remove_linkedsearchbinarytree
      1280  l_met_linkedsearchbinarytree_treesearch
      1306  l_endifthen_14_treesearch_linkedsearchbinarytree
      1365  l_endif_15_treesearch_linkedsearchbinarytree
      1424  l_endif_16_treesearch_linkedsearchbinarytree
      1432  l_endelse_16_treesearch_linkedsearchbinarytree
      1433  l_endelse_15_treesearch_linkedsearchbinarytree
      1437  l_met_linkedsearchbinarytree_treeinsert
      1506  l_endif_17_treeinsert_linkedsearchbinarytree
      1516  l_endelse_17_treeinsert_linkedsearchbinarytree
      1522  l_met_linkedsearchbinarytree_insertexternalnode
      1611  l_met_linkedsearchbinarytree_removeexternal
      1703  l_endif_19_removeexternal_linkedsearchbinarytree
      1731  l_endifthen_20_removeexternal_linkedsearchbinarytree
      1732  l_endelse_19_removeexternal_linkedsearchbinarytree
      1744  l_endifthen_18_removeexternal_linkedsearchbinarytree
      1750  l_met_linkedsearchbinarytree_removemin
      1771  l_while_21_removemin_linkedsearchbinarytree
      1818  l_endwhile_21_removemin_linkedsearchbinarytree
      1865  l_ctor_node_node
      1915  l_met_node_setparent
      1928  l_met_node_setleft
      1941  l_met_node_setright
      1954  l_met_node_setentry
      1967  l_met_node_getparent
      1982  l_met_node_getentry
      1997  l_met_node_getleft
      2012  l_met_node_getright
      2027  l_ctor_entry_entry
      2047  l_met_entry_getkey
      2062  l_met_entry_getelement
      2077  l_met_entry_setelement
      2090  l_ctor_main_main
      2096  l_met_main_insert
      2149  l_met_main_obtener
      2220  l_endif_25_obtener_main
      2229  l_endelse_25_obtener_main
      2240  l_met_main_eliminar
      2290  l_met_main_main
      2782  vt_object
      2783  vt_system
      2794  vt_linkedbinarytree
      2810  vt_linkedsearchbinarytree
      2834  vt_node
      2842  vt_entry
      2845  vt_main
      2849  lstring22_insert_main
      2854  lstring23_obtener_main
      2864  lstring24_obtener_main
      2868  lstring26_obtener_main
      2889  lstring27_eliminar_main
      2899  lstring28_eliminar_main
      2901  lstring29_main_main
      2941  lstring30_main_main
      2945  lstring31_main_main
      2951  lstring32_main_main
      2960  lstring33_main_main
      2966  lstring34_main_main
      2971  lstring35_main_main
      2977  lstring36_main_main
      2982  lstring37_main_main
      2991  lstring38_main_main
      2996  lstring39_main_main
      3002  lstring40_main_main
      3008  lstring41_main_main
      3016  lstring42_main_main
      3021  lstring43_main_main
      3026  lstring44_main_main
      3034  lstring45_main_main
      3041  lstring46_main_main

------------------------------------------------------------------------------------------
----------- Contenido de la memoria ensamblada, linkeada y cargada -----------------------
------------------------------------------------------------------------------------------

----------- Sección .CODE ----------------------------------------------------------------
Dirección   Cont.Mem.   Código CeIASM                           Referencia

         0           1  PUSH                                    ; Archivo: LinkedSearchBinaryTree.txt línea: 5 columna: 1.
         1         135  L_SIMPLE_INIT_HEAP                      ; Archivo: LinkedSearchBinaryTree.txt línea: 5 columna: 6.
         2         100  CALL                                    ; Archivo: LinkedSearchBinaryTree.txt línea: 6 columna: 1.
         3         101  RMEM                                    ; Archivo: LinkedSearchBinaryTree.txt línea: 7 columna: 1.
         4           1  1                                       ; Archivo: LinkedSearchBinaryTree.txt línea: 7 columna: 6.
         5           1  PUSH                                    ; Archivo: LinkedSearchBinaryTree.txt línea: 8 columna: 1.
         6        2290  L_MET_Main_main                         ; Archivo: LinkedSearchBinaryTree.txt línea: 8 columna: 6.
         7         100  CALL                                    ; Archivo: LinkedSearchBinaryTree.txt línea: 9 columna: 1.
         8         104  HALT                                    ; Archivo: LinkedSearchBinaryTree.txt línea: 10 columna: 1.
         9           0  L_MET_System_Ctor: NOP                  ; Archivo: LinkedSearchBinaryTree.txt línea: 11 columna: 20.
        10         124  LOADFP                                  ; Archivo: LinkedSearchBinaryTree.txt línea: 12 columna: 1.
        11         122  LOADSP                                  ; Archivo: LinkedSearchBinaryTree.txt línea: 13 columna: 1.
        12         125  STOREFP                                 ; Archivo: LinkedSearchBinaryTree.txt línea: 14 columna: 1.
        13         125  STOREFP                                 ; Archivo: LinkedSearchBinaryTree.txt línea: 15 columna: 1.
        14         103  RET                                     ; Archivo: LinkedSearchBinaryTree.txt línea: 16 columna: 1.
        15           1  1                                       ; Archivo: LinkedSearchBinaryTree.txt línea: 16 columna: 5.
        16           0  L_MET_System_read: NOP                  ; Archivo: LinkedSearchBinaryTree.txt línea: 17 columna: 20.
        17         124  LOADFP                                  ; Archivo: LinkedSearchBinaryTree.txt línea: 18 columna: 1.
        18         122  LOADSP                                  ; Archivo: LinkedSearchBinaryTree.txt línea: 19 columna: 1.
        19         125  STOREFP                                 ; Archivo: LinkedSearchBinaryTree.txt línea: 20 columna: 1.
        20          60  READ                                    ; Archivo: LinkedSearchBinaryTree.txt línea: 21 columna: 1.
        21          81  STORE                                   ; Archivo: LinkedSearchBinaryTree.txt línea: 22 columna: 1.
        22           4  4                                       ; Archivo: LinkedSearchBinaryTree.txt línea: 22 columna: 7.
        23         125  STOREFP                                 ; Archivo: LinkedSearchBinaryTree.txt línea: 23 columna: 1.
        24         103  RET                                     ; Archivo: LinkedSearchBinaryTree.txt línea: 24 columna: 1.
        25           1  1                                       ; Archivo: LinkedSearchBinaryTree.txt línea: 24 columna: 5.
        26           0  L_MET_System_printI: NOP                ; Archivo: LinkedSearchBinaryTree.txt línea: 25 columna: 22.
        27         124  LOADFP                                  ; Archivo: LinkedSearchBinaryTree.txt línea: 26 columna: 1.
        28         122  LOADSP                                  ; Archivo: LinkedSearchBinaryTree.txt línea: 27 columna: 1.
        29         125  STOREFP                                 ; Archivo: LinkedSearchBinaryTree.txt línea: 28 columna: 1.
        30          80  LOAD                                    ; Archivo: LinkedSearchBinaryTree.txt línea: 29 columna: 1.
        31           4  4                                       ; Archivo: LinkedSearchBinaryTree.txt línea: 29 columna: 6.
        32          63  IPRINT                                  ; Archivo: LinkedSearchBinaryTree.txt línea: 30 columna: 1.
        33         125  STOREFP                                 ; Archivo: LinkedSearchBinaryTree.txt línea: 31 columna: 1.
        34         103  RET                                     ; Archivo: LinkedSearchBinaryTree.txt línea: 32 columna: 1.
        35           2  2                                       ; Archivo: LinkedSearchBinaryTree.txt línea: 32 columna: 5.
        36           0  L_MET_System_printC: NOP                ; Archivo: LinkedSearchBinaryTree.txt línea: 33 columna: 22.
        37         124  LOADFP                                  ; Archivo: LinkedSearchBinaryTree.txt línea: 34 columna: 1.
        38         122  LOADSP                                  ; Archivo: LinkedSearchBinaryTree.txt línea: 35 columna: 1.
        39         125  STOREFP                                 ; Archivo: LinkedSearchBinaryTree.txt línea: 36 columna: 1.
        40          80  LOAD                                    ; Archivo: LinkedSearchBinaryTree.txt línea: 37 columna: 1.
        41           4  4                                       ; Archivo: LinkedSearchBinaryTree.txt línea: 37 columna: 6.
        42          62  CPRINT                                  ; Archivo: LinkedSearchBinaryTree.txt línea: 38 columna: 1.
        43         125  STOREFP                                 ; Archivo: LinkedSearchBinaryTree.txt línea: 39 columna: 1.
        44         103  RET                                     ; Archivo: LinkedSearchBinaryTree.txt línea: 40 columna: 1.
        45           2  2                                       ; Archivo: LinkedSearchBinaryTree.txt línea: 40 columna: 5.
        46           0  L_MET_System_printB: NOP                ; Archivo: LinkedSearchBinaryTree.txt línea: 41 columna: 22.
        47         124  LOADFP                                  ; Archivo: LinkedSearchBinaryTree.txt línea: 42 columna: 1.
        48         122  LOADSP                                  ; Archivo: LinkedSearchBinaryTree.txt línea: 43 columna: 1.
        49         125  STOREFP                                 ; Archivo: LinkedSearchBinaryTree.txt línea: 44 columna: 1.
        50          80  LOAD                                    ; Archivo: LinkedSearchBinaryTree.txt línea: 45 columna: 1.
        51           4  4                                       ; Archivo: LinkedSearchBinaryTree.txt línea: 45 columna: 6.
        52          61  BPRINT                                  ; Archivo: LinkedSearchBinaryTree.txt línea: 46 columna: 1.
        53         125  STOREFP                                 ; Archivo: LinkedSearchBinaryTree.txt línea: 47 columna: 1.
        54         103  RET                                     ; Archivo: LinkedSearchBinaryTree.txt línea: 48 columna: 1.
        55           2  2                                       ; Archivo: LinkedSearchBinaryTree.txt línea: 48 columna: 5.
        56           0  L_MET_System_printS: NOP                ; Archivo: LinkedSearchBinaryTree.txt línea: 49 columna: 22.
        57         124  LOADFP                                  ; Archivo: LinkedSearchBinaryTree.txt línea: 50 columna: 1.
        58         122  LOADSP                                  ; Archivo: LinkedSearchBinaryTree.txt línea: 51 columna: 1.
        59         125  STOREFP                                 ; Archivo: LinkedSearchBinaryTree.txt línea: 52 columna: 1.
        60          80  LOAD                                    ; Archivo: LinkedSearchBinaryTree.txt línea: 53 columna: 1.
        61           4  4                                       ; Archivo: LinkedSearchBinaryTree.txt línea: 53 columna: 6.
        62          64  SPRINT                                  ; Archivo: LinkedSearchBinaryTree.txt línea: 54 columna: 1.
        63         125  STOREFP                                 ; Archivo: LinkedSearchBinaryTree.txt línea: 55 columna: 1.
        64         103  RET                                     ; Archivo: LinkedSearchBinaryTree.txt línea: 56 columna: 1.
        65           2  2                                       ; Archivo: LinkedSearchBinaryTree.txt línea: 56 columna: 5.
        66           0  L_MET_System_println: NOP               ; Archivo: LinkedSearchBinaryTree.txt línea: 57 columna: 23.
        67         124  LOADFP                                  ; Archivo: LinkedSearchBinaryTree.txt línea: 58 columna: 1.
        68         122  LOADSP                                  ; Archivo: LinkedSearchBinaryTree.txt línea: 59 columna: 1.
        69         125  STOREFP                                 ; Archivo: LinkedSearchBinaryTree.txt línea: 60 columna: 1.
        70          65  PRNLN                                   ; Archivo: LinkedSearchBinaryTree.txt línea: 61 columna: 1.
        71         125  STOREFP                                 ; Archivo: LinkedSearchBinaryTree.txt línea: 62 columna: 1.
        72         103  RET                                     ; Archivo: LinkedSearchBinaryTree.txt línea: 63 columna: 1.
        73           1  1                                       ; Archivo: LinkedSearchBinaryTree.txt línea: 63 columna: 5.
        74           0  L_MET_System_printBln: NOP              ; Archivo: LinkedSearchBinaryTree.txt línea: 64 columna: 24.
        75         124  LOADFP                                  ; Archivo: LinkedSearchBinaryTree.txt línea: 65 columna: 1.
        76         122  LOADSP                                  ; Archivo: LinkedSearchBinaryTree.txt línea: 66 columna: 1.
        77         125  STOREFP                                 ; Archivo: LinkedSearchBinaryTree.txt línea: 67 columna: 1.
        78          80  LOAD                                    ; Archivo: LinkedSearchBinaryTree.txt línea: 68 columna: 1.
        79           4  4                                       ; Archivo: LinkedSearchBinaryTree.txt línea: 68 columna: 6.
        80          61  BPRINT                                  ; Archivo: LinkedSearchBinaryTree.txt línea: 69 columna: 1.
        81          65  PRNLN                                   ; Archivo: LinkedSearchBinaryTree.txt línea: 70 columna: 1.
        82         125  STOREFP                                 ; Archivo: LinkedSearchBinaryTree.txt línea: 71 columna: 1.
        83         103  RET                                     ; Archivo: LinkedSearchBinaryTree.txt línea: 72 columna: 1.
        84           2  2                                       ; Archivo: LinkedSearchBinaryTree.txt línea: 72 columna: 5.
        85           0  L_MET_System_printCln: NOP              ; Archivo: LinkedSearchBinaryTree.txt línea: 73 columna: 24.
        86         124  LOADFP                                  ; Archivo: LinkedSearchBinaryTree.txt línea: 74 columna: 1.
        87         122  LOADSP                                  ; Archivo: LinkedSearchBinaryTree.txt línea: 75 columna: 1.
        88         125  STOREFP                                 ; Archivo: LinkedSearchBinaryTree.txt línea: 76 columna: 1.
        89          80  LOAD                                    ; Archivo: LinkedSearchBinaryTree.txt línea: 77 columna: 1.
        90           4  4                                       ; Archivo: LinkedSearchBinaryTree.txt línea: 77 columna: 6.
        91          62  CPRINT                                  ; Archivo: LinkedSearchBinaryTree.txt línea: 78 columna: 1.
        92          65  PRNLN                                   ; Archivo: LinkedSearchBinaryTree.txt línea: 79 columna: 1.
        93         125  STOREFP                                 ; Archivo: LinkedSearchBinaryTree.txt línea: 80 columna: 1.
        94         103  RET                                     ; Archivo: LinkedSearchBinaryTree.txt línea: 81 columna: 1.
        95           2  2                                       ; Archivo: LinkedSearchBinaryTree.txt línea: 81 columna: 5.
        96           0  L_MET_System_printIln: NOP              ; Archivo: LinkedSearchBinaryTree.txt línea: 82 columna: 24.
        97         124  LOADFP                                  ; Archivo: LinkedSearchBinaryTree.txt línea: 83 columna: 1.
        98         122  LOADSP                                  ; Archivo: LinkedSearchBinaryTree.txt línea: 84 columna: 1.
        99         125  STOREFP                                 ; Archivo: LinkedSearchBinaryTree.txt línea: 85 columna: 1.
       100          80  LOAD                                    ; Archivo: LinkedSearchBinaryTree.txt línea: 86 columna: 1.
       101           4  4                                       ; Archivo: LinkedSearchBinaryTree.txt línea: 86 columna: 6.
       102          63  IPRINT                                  ; Archivo: LinkedSearchBinaryTree.txt línea: 87 columna: 1.
       103          65  PRNLN                                   ; Archivo: LinkedSearchBinaryTree.txt línea: 88 columna: 1.
       104         125  STOREFP                                 ; Archivo: LinkedSearchBinaryTree.txt línea: 89 columna: 1.
       105         103  RET                                     ; Archivo: LinkedSearchBinaryTree.txt línea: 90 columna: 1.
       106           2  2                                       ; Archivo: LinkedSearchBinaryTree.txt línea: 90 columna: 5.
       107           0  L_MET_System_printSln: NOP              ; Archivo: LinkedSearchBinaryTree.txt línea: 91 columna: 24.
       108         124  LOADFP                                  ; Archivo: LinkedSearchBinaryTree.txt línea: 92 columna: 1.
       109         122  LOADSP                                  ; Archivo: LinkedSearchBinaryTree.txt línea: 93 columna: 1.
       110         125  STOREFP                                 ; Archivo: LinkedSearchBinaryTree.txt línea: 94 columna: 1.
       111          80  LOAD                                    ; Archivo: LinkedSearchBinaryTree.txt línea: 95 columna: 1.
       112           4  4                                       ; Archivo: LinkedSearchBinaryTree.txt línea: 95 columna: 6.
       113          64  SPRINT                                  ; Archivo: LinkedSearchBinaryTree.txt línea: 96 columna: 1.
       114          65  PRNLN                                   ; Archivo: LinkedSearchBinaryTree.txt línea: 97 columna: 1.
       115         125  STOREFP                                 ; Archivo: LinkedSearchBinaryTree.txt línea: 98 columna: 1.
       116         103  RET                                     ; Archivo: LinkedSearchBinaryTree.txt línea: 99 columna: 1.
       117           2  2                                       ; Archivo: LinkedSearchBinaryTree.txt línea: 99 columna: 5.
       118         124  L_SIMPLE_MALLOC: LOADFP                 ; Archivo: LinkedSearchBinaryTree.txt línea: 100 columna: 18.
       119         122  LOADSP                                  ; Archivo: LinkedSearchBinaryTree.txt línea: 101 columna: 1.
       120         125  STOREFP                                 ; Archivo: LinkedSearchBinaryTree.txt línea: 102 columna: 1.
       121         128  LOADHL                                  ; Archivo: LinkedSearchBinaryTree.txt línea: 103 columna: 1.
       122          30  DUP                                     ; Archivo: LinkedSearchBinaryTree.txt línea: 104 columna: 1.
       123           1  PUSH                                    ; Archivo: LinkedSearchBinaryTree.txt línea: 105 columna: 1.
       124           1  1                                       ; Archivo: LinkedSearchBinaryTree.txt línea: 105 columna: 6.
       125           2  ADD                                     ; Archivo: LinkedSearchBinaryTree.txt línea: 106 columna: 1.
       126          81  STORE                                   ; Archivo: LinkedSearchBinaryTree.txt línea: 107 columna: 1.
       127           4  4                                       ; Archivo: LinkedSearchBinaryTree.txt línea: 107 columna: 7.
       128          80  LOAD                                    ; Archivo: LinkedSearchBinaryTree.txt línea: 108 columna: 1.
       129           3  3                                       ; Archivo: LinkedSearchBinaryTree.txt línea: 108 columna: 6.
       130           2  ADD                                     ; Archivo: LinkedSearchBinaryTree.txt línea: 109 columna: 1.
       131         129  STOREHL                                 ; Archivo: LinkedSearchBinaryTree.txt línea: 110 columna: 1.
       132         125  STOREFP                                 ; Archivo: LinkedSearchBinaryTree.txt línea: 111 columna: 1.
       133         103  RET                                     ; Archivo: LinkedSearchBinaryTree.txt línea: 112 columna: 1.
       134           1  1                                       ; Archivo: LinkedSearchBinaryTree.txt línea: 112 columna: 5.
       135         103  L_SIMPLE_INIT_HEAP: RET                 ; Archivo: LinkedSearchBinaryTree.txt línea: 113 columna: 21.
       136           0  0                                       ; Archivo: LinkedSearchBinaryTree.txt línea: 113 columna: 25.
       137         124  L_CTOR_LinkedBinaryTree_LinkedBinaryTree: LOADFP; Archivo: LinkedSearchBinaryTree.txt línea: 118 columna: 43.
       138         122  LOADSP                                  ; Archivo: LinkedSearchBinaryTree.txt línea: 119 columna: 1.
       139         125  STOREFP                                 ; Archivo: LinkedSearchBinaryTree.txt línea: 120 columna: 1.
       140          80  LOAD                                    ; Archivo: LinkedSearchBinaryTree.txt línea: 122 columna: 1.
       141           3  3                                       ; Archivo: LinkedSearchBinaryTree.txt línea: 122 columna: 6.
       142          30  DUP                                     ; Archivo: LinkedSearchBinaryTree.txt línea: 123 columna: 1.
       143          82  LOADREF                                 ; Archivo: LinkedSearchBinaryTree.txt línea: 124 columna: 1.
       144           0  0                                       ; Archivo: LinkedSearchBinaryTree.txt línea: 124 columna: 9.
       145          82  LOADREF                                 ; Archivo: LinkedSearchBinaryTree.txt línea: 125 columna: 1.
       146           0  0                                       ; Archivo: LinkedSearchBinaryTree.txt línea: 125 columna: 9.
       147         100  CALL                                    ; Archivo: LinkedSearchBinaryTree.txt línea: 126 columna: 1.
       148         125  STOREFP                                 ; Archivo: LinkedSearchBinaryTree.txt línea: 127 columna: 1.
       149         103  RET                                     ; Archivo: LinkedSearchBinaryTree.txt línea: 128 columna: 1.
       150           1  1                                       ; Archivo: LinkedSearchBinaryTree.txt línea: 128 columna: 5.
       151         124  L_MET_LinkedBinaryTree_LinkedBinaryTree_init: LOADFP; Archivo: LinkedSearchBinaryTree.txt línea: 131 columna: 47.
       152         122  LOADSP                                  ; Archivo: LinkedSearchBinaryTree.txt línea: 132 columna: 1.
       153         125  STOREFP                                 ; Archivo: LinkedSearchBinaryTree.txt línea: 133 columna: 1.
       154           1  PUSH                                    ; Archivo: LinkedSearchBinaryTree.txt línea: 135 columna: 1.
       155           0  0                                       ; Archivo: LinkedSearchBinaryTree.txt línea: 135 columna: 6.
       156          80  LOAD                                    ; Archivo: LinkedSearchBinaryTree.txt línea: 137 columna: 1.
       157           3  3                                       ; Archivo: LinkedSearchBinaryTree.txt línea: 137 columna: 6.
       158          32  SWAP                                    ; Archivo: LinkedSearchBinaryTree.txt línea: 138 columna: 1.
       159          83  STOREREF                                ; Archivo: LinkedSearchBinaryTree.txt línea: 139 columna: 1.
       160           1  1                                       ; Archivo: LinkedSearchBinaryTree.txt línea: 139 columna: 10.
       161           1  PUSH                                    ; Archivo: LinkedSearchBinaryTree.txt línea: 141 columna: 1.
       162           0  0                                       ; Archivo: LinkedSearchBinaryTree.txt línea: 141 columna: 6.
       163          80  LOAD                                    ; Archivo: LinkedSearchBinaryTree.txt línea: 143 columna: 1.
       164           3  3                                       ; Archivo: LinkedSearchBinaryTree.txt línea: 143 columna: 6.
       165          32  SWAP                                    ; Archivo: LinkedSearchBinaryTree.txt línea: 144 columna: 1.
       166          83  STOREREF                                ; Archivo: LinkedSearchBinaryTree.txt línea: 145 columna: 1.
       167           2  2                                       ; Archivo: LinkedSearchBinaryTree.txt línea: 145 columna: 10.
       168         125  STOREFP                                 ; Archivo: LinkedSearchBinaryTree.txt línea: 146 columna: 1.
       169         103  RET                                     ; Archivo: LinkedSearchBinaryTree.txt línea: 147 columna: 1.
       170           1  1                                       ; Archivo: LinkedSearchBinaryTree.txt línea: 147 columna: 5.
       171         124  L_MET_LinkedBinaryTree_size: LOADFP     ; Archivo: LinkedSearchBinaryTree.txt línea: 150 columna: 30.
       172         122  LOADSP                                  ; Archivo: LinkedSearchBinaryTree.txt línea: 151 columna: 1.
       173         125  STOREFP                                 ; Archivo: LinkedSearchBinaryTree.txt línea: 152 columna: 1.
       174          80  LOAD                                    ; Archivo: LinkedSearchBinaryTree.txt línea: 154 columna: 1.
       175           3  3                                       ; Archivo: LinkedSearchBinaryTree.txt línea: 154 columna: 6.
       176          82  LOADREF                                 ; Archivo: LinkedSearchBinaryTree.txt línea: 155 columna: 1.
       177           2  2                                       ; Archivo: LinkedSearchBinaryTree.txt línea: 155 columna: 9.
       178          81  STORE                                   ; Archivo: LinkedSearchBinaryTree.txt línea: 158 columna: 1.
       179           4  4                                       ; Archivo: LinkedSearchBinaryTree.txt línea: 158 columna: 7.
       180         125  STOREFP                                 ; Archivo: LinkedSearchBinaryTree.txt línea: 159 columna: 1.
       181         103  RET                                     ; Archivo: LinkedSearchBinaryTree.txt línea: 160 columna: 1.
       182           1  1                                       ; Archivo: LinkedSearchBinaryTree.txt línea: 160 columna: 5.
       183         125  STOREFP                                 ; Archivo: LinkedSearchBinaryTree.txt línea: 161 columna: 1.
       184         103  RET                                     ; Archivo: LinkedSearchBinaryTree.txt línea: 162 columna: 1.
       185           1  1                                       ; Archivo: LinkedSearchBinaryTree.txt línea: 162 columna: 5.
       186         124  L_MET_LinkedBinaryTree_isEmpty: LOADFP  ; Archivo: LinkedSearchBinaryTree.txt línea: 165 columna: 33.
       187         122  LOADSP                                  ; Archivo: LinkedSearchBinaryTree.txt línea: 166 columna: 1.
       188         125  STOREFP                                 ; Archivo: LinkedSearchBinaryTree.txt línea: 167 columna: 1.
       189          80  LOAD                                    ; Archivo: LinkedSearchBinaryTree.txt línea: 169 columna: 1.
       190           3  3                                       ; Archivo: LinkedSearchBinaryTree.txt línea: 169 columna: 6.
       191          82  LOADREF                                 ; Archivo: LinkedSearchBinaryTree.txt línea: 170 columna: 1.
       192           2  2                                       ; Archivo: LinkedSearchBinaryTree.txt línea: 170 columna: 9.
       193           1  PUSH                                    ; Archivo: LinkedSearchBinaryTree.txt línea: 172 columna: 1.
       194           0  0                                       ; Archivo: LinkedSearchBinaryTree.txt línea: 172 columna: 6.
       195          11  EQ                                      ; Archivo: LinkedSearchBinaryTree.txt línea: 174 columna: 1.
       196          81  STORE                                   ; Archivo: LinkedSearchBinaryTree.txt línea: 177 columna: 1.
       197           4  4                                       ; Archivo: LinkedSearchBinaryTree.txt línea: 177 columna: 7.
       198         125  STOREFP                                 ; Archivo: LinkedSearchBinaryTree.txt línea: 178 columna: 1.
       199         103  RET                                     ; Archivo: LinkedSearchBinaryTree.txt línea: 179 columna: 1.
       200           1  1                                       ; Archivo: LinkedSearchBinaryTree.txt línea: 179 columna: 5.
       201         125  STOREFP                                 ; Archivo: LinkedSearchBinaryTree.txt línea: 180 columna: 1.
       202         103  RET                                     ; Archivo: LinkedSearchBinaryTree.txt línea: 181 columna: 1.
       203           1  1                                       ; Archivo: LinkedSearchBinaryTree.txt línea: 181 columna: 5.
       204         124  L_MET_LinkedBinaryTree_replace: LOADFP  ; Archivo: LinkedSearchBinaryTree.txt línea: 184 columna: 33.
       205         122  LOADSP                                  ; Archivo: LinkedSearchBinaryTree.txt línea: 185 columna: 1.
       206         125  STOREFP                                 ; Archivo: LinkedSearchBinaryTree.txt línea: 186 columna: 1.
       207         101  RMEM                                    ; Archivo: LinkedSearchBinaryTree.txt línea: 187 columna: 1.
       208           1  1                                       ; Archivo: LinkedSearchBinaryTree.txt línea: 187 columna: 6.
       209          80  LOAD                                    ; Archivo: LinkedSearchBinaryTree.txt línea: 189 columna: 1.
       210           5  5                                       ; Archivo: LinkedSearchBinaryTree.txt línea: 189 columna: 6.
       211         101  RMEM                                    ; Archivo: LinkedSearchBinaryTree.txt línea: 191 columna: 1.
       212           1  1                                       ; Archivo: LinkedSearchBinaryTree.txt línea: 191 columna: 6.
       213          32  SWAP                                    ; Archivo: LinkedSearchBinaryTree.txt línea: 192 columna: 1.
       214          30  DUP                                     ; Archivo: LinkedSearchBinaryTree.txt línea: 194 columna: 1.
       215          82  LOADREF                                 ; Archivo: LinkedSearchBinaryTree.txt línea: 195 columna: 1.
       216           0  0                                       ; Archivo: LinkedSearchBinaryTree.txt línea: 195 columna: 9.
       217          82  LOADREF                                 ; Archivo: LinkedSearchBinaryTree.txt línea: 196 columna: 1.
       218           5  5                                       ; Archivo: LinkedSearchBinaryTree.txt línea: 196 columna: 9.
       219         100  CALL                                    ; Archivo: LinkedSearchBinaryTree.txt línea: 197 columna: 1.
       220          81  STORE                                   ; Archivo: LinkedSearchBinaryTree.txt línea: 199 columna: 1.
       221           0  0                                       ; Archivo: LinkedSearchBinaryTree.txt línea: 199 columna: 7.
       222          80  LOAD                                    ; Archivo: LinkedSearchBinaryTree.txt línea: 201 columna: 1.
       223           5  5                                       ; Archivo: LinkedSearchBinaryTree.txt línea: 201 columna: 6.
       224          80  LOAD                                    ; Archivo: LinkedSearchBinaryTree.txt línea: 204 columna: 1.
       225           4  4                                       ; Archivo: LinkedSearchBinaryTree.txt línea: 204 columna: 6.
       226          32  SWAP                                    ; Archivo: LinkedSearchBinaryTree.txt línea: 205 columna: 1.
       227          30  DUP                                     ; Archivo: LinkedSearchBinaryTree.txt línea: 207 columna: 1.
       228          82  LOADREF                                 ; Archivo: LinkedSearchBinaryTree.txt línea: 208 columna: 1.
       229           0  0                                       ; Archivo: LinkedSearchBinaryTree.txt línea: 208 columna: 9.
       230          82  LOADREF                                 ; Archivo: LinkedSearchBinaryTree.txt línea: 209 columna: 1.
       231           3  3                                       ; Archivo: LinkedSearchBinaryTree.txt línea: 209 columna: 9.
       232         100  CALL                                    ; Archivo: LinkedSearchBinaryTree.txt línea: 210 columna: 1.
       233          80  LOAD                                    ; Archivo: LinkedSearchBinaryTree.txt línea: 212 columna: 1.
       234           0  0                                       ; Archivo: LinkedSearchBinaryTree.txt línea: 212 columna: 6.
       235          81  STORE                                   ; Archivo: LinkedSearchBinaryTree.txt línea: 215 columna: 1.
       236           6  6                                       ; Archivo: LinkedSearchBinaryTree.txt línea: 215 columna: 7.
       237         102  FMEM                                    ; Archivo: LinkedSearchBinaryTree.txt línea: 216 columna: 1.
       238           1  1                                       ; Archivo: LinkedSearchBinaryTree.txt línea: 216 columna: 6.
       239         125  STOREFP                                 ; Archivo: LinkedSearchBinaryTree.txt línea: 217 columna: 1.
       240         103  RET                                     ; Archivo: LinkedSearchBinaryTree.txt línea: 218 columna: 1.
       241           3  3                                       ; Archivo: LinkedSearchBinaryTree.txt línea: 218 columna: 5.
       242         102  FMEM                                    ; Archivo: LinkedSearchBinaryTree.txt línea: 219 columna: 1.
       243           1  1                                       ; Archivo: LinkedSearchBinaryTree.txt línea: 219 columna: 6.
       244         125  STOREFP                                 ; Archivo: LinkedSearchBinaryTree.txt línea: 220 columna: 1.
       245         103  RET                                     ; Archivo: LinkedSearchBinaryTree.txt línea: 221 columna: 1.
       246           3  3                                       ; Archivo: LinkedSearchBinaryTree.txt línea: 221 columna: 5.
       247         124  L_MET_LinkedBinaryTree_root: LOADFP     ; Archivo: LinkedSearchBinaryTree.txt línea: 224 columna: 30.
       248         122  LOADSP                                  ; Archivo: LinkedSearchBinaryTree.txt línea: 225 columna: 1.
       249         125  STOREFP                                 ; Archivo: LinkedSearchBinaryTree.txt línea: 226 columna: 1.
       250          80  LOAD                                    ; Archivo: LinkedSearchBinaryTree.txt línea: 228 columna: 1.
       251           3  3                                       ; Archivo: LinkedSearchBinaryTree.txt línea: 228 columna: 6.
       252         101  RMEM                                    ; Archivo: LinkedSearchBinaryTree.txt línea: 229 columna: 1.
       253           1  1                                       ; Archivo: LinkedSearchBinaryTree.txt línea: 229 columna: 6.
       254          32  SWAP                                    ; Archivo: LinkedSearchBinaryTree.txt línea: 230 columna: 1.
       255          30  DUP                                     ; Archivo: LinkedSearchBinaryTree.txt línea: 231 columna: 1.
       256          82  LOADREF                                 ; Archivo: LinkedSearchBinaryTree.txt línea: 232 columna: 1.
       257           0  0                                       ; Archivo: LinkedSearchBinaryTree.txt línea: 232 columna: 9.
       258          82  LOADREF                                 ; Archivo: LinkedSearchBinaryTree.txt línea: 233 columna: 1.
       259           2  2                                       ; Archivo: LinkedSearchBinaryTree.txt línea: 233 columna: 9.
       260         100  CALL                                    ; Archivo: LinkedSearchBinaryTree.txt línea: 234 columna: 1.
       261          41  BF                                      ; Archivo: LinkedSearchBinaryTree.txt línea: 237 columna: 1.
       262         270  L_ENDIFTHEN_1_root_LinkedBinaryTree     ; Archivo: LinkedSearchBinaryTree.txt línea: 237 columna: 4.
       263           1  PUSH                                    ; Archivo: LinkedSearchBinaryTree.txt línea: 239 columna: 1.
       264           0  0                                       ; Archivo: LinkedSearchBinaryTree.txt línea: 239 columna: 6.
       265          81  STORE                                   ; Archivo: LinkedSearchBinaryTree.txt línea: 242 columna: 1.
       266           4  4                                       ; Archivo: LinkedSearchBinaryTree.txt línea: 242 columna: 7.
       267         125  STOREFP                                 ; Archivo: LinkedSearchBinaryTree.txt línea: 243 columna: 1.
       268         103  RET                                     ; Archivo: LinkedSearchBinaryTree.txt línea: 244 columna: 1.
       269           1  1                                       ; Archivo: LinkedSearchBinaryTree.txt línea: 244 columna: 5.
       270           0  L_ENDIFTHEN_1_root_LinkedBinaryTree: NOP; Archivo: LinkedSearchBinaryTree.txt línea: 245 columna: 38.
       271          80  LOAD                                    ; Archivo: LinkedSearchBinaryTree.txt línea: 247 columna: 1.
       272           3  3                                       ; Archivo: LinkedSearchBinaryTree.txt línea: 247 columna: 6.
       273          82  LOADREF                                 ; Archivo: LinkedSearchBinaryTree.txt línea: 248 columna: 1.
       274           1  1                                       ; Archivo: LinkedSearchBinaryTree.txt línea: 248 columna: 9.
       275          81  STORE                                   ; Archivo: LinkedSearchBinaryTree.txt línea: 251 columna: 1.
       276           4  4                                       ; Archivo: LinkedSearchBinaryTree.txt línea: 251 columna: 7.
       277         125  STOREFP                                 ; Archivo: LinkedSearchBinaryTree.txt línea: 252 columna: 1.
       278         103  RET                                     ; Archivo: LinkedSearchBinaryTree.txt línea: 253 columna: 1.
       279           1  1                                       ; Archivo: LinkedSearchBinaryTree.txt línea: 253 columna: 5.
       280         125  STOREFP                                 ; Archivo: LinkedSearchBinaryTree.txt línea: 254 columna: 1.
       281         103  RET                                     ; Archivo: LinkedSearchBinaryTree.txt línea: 255 columna: 1.
       282           1  1                                       ; Archivo: LinkedSearchBinaryTree.txt línea: 255 columna: 5.
       283         124  L_MET_LinkedBinaryTree_parent: LOADFP   ; Archivo: LinkedSearchBinaryTree.txt línea: 258 columna: 32.
       284         122  LOADSP                                  ; Archivo: LinkedSearchBinaryTree.txt línea: 259 columna: 1.
       285         125  STOREFP                                 ; Archivo: LinkedSearchBinaryTree.txt línea: 260 columna: 1.
       286          80  LOAD                                    ; Archivo: LinkedSearchBinaryTree.txt línea: 262 columna: 1.
       287           4  4                                       ; Archivo: LinkedSearchBinaryTree.txt línea: 262 columna: 6.
       288          80  LOAD                                    ; Archivo: LinkedSearchBinaryTree.txt línea: 264 columna: 1.
       289           3  3                                       ; Archivo: LinkedSearchBinaryTree.txt línea: 264 columna: 6.
       290          82  LOADREF                                 ; Archivo: LinkedSearchBinaryTree.txt línea: 265 columna: 1.
       291           1  1                                       ; Archivo: LinkedSearchBinaryTree.txt línea: 265 columna: 9.
       292          11  EQ                                      ; Archivo: LinkedSearchBinaryTree.txt línea: 267 columna: 1.
       293          41  BF                                      ; Archivo: LinkedSearchBinaryTree.txt línea: 269 columna: 1.
       294         302  L_ENDIFTHEN_2_parent_LinkedBinaryTree   ; Archivo: LinkedSearchBinaryTree.txt línea: 269 columna: 4.
       295           1  PUSH                                    ; Archivo: LinkedSearchBinaryTree.txt línea: 271 columna: 1.
       296           0  0                                       ; Archivo: LinkedSearchBinaryTree.txt línea: 271 columna: 6.
       297          81  STORE                                   ; Archivo: LinkedSearchBinaryTree.txt línea: 274 columna: 1.
       298           5  5                                       ; Archivo: LinkedSearchBinaryTree.txt línea: 274 columna: 7.
       299         125  STOREFP                                 ; Archivo: LinkedSearchBinaryTree.txt línea: 275 columna: 1.
       300         103  RET                                     ; Archivo: LinkedSearchBinaryTree.txt línea: 276 columna: 1.
       301           2  2                                       ; Archivo: LinkedSearchBinaryTree.txt línea: 276 columna: 5.
       302           0  L_ENDIFTHEN_2_parent_LinkedBinaryTree: NOP; Archivo: LinkedSearchBinaryTree.txt línea: 277 columna: 40.
       303          80  LOAD                                    ; Archivo: LinkedSearchBinaryTree.txt línea: 279 columna: 1.
       304           4  4                                       ; Archivo: LinkedSearchBinaryTree.txt línea: 279 columna: 6.
       305         101  RMEM                                    ; Archivo: LinkedSearchBinaryTree.txt línea: 281 columna: 1.
       306           1  1                                       ; Archivo: LinkedSearchBinaryTree.txt línea: 281 columna: 6.
       307          32  SWAP                                    ; Archivo: LinkedSearchBinaryTree.txt línea: 282 columna: 1.
       308          30  DUP                                     ; Archivo: LinkedSearchBinaryTree.txt línea: 284 columna: 1.
       309          82  LOADREF                                 ; Archivo: LinkedSearchBinaryTree.txt línea: 285 columna: 1.
       310           0  0                                       ; Archivo: LinkedSearchBinaryTree.txt línea: 285 columna: 9.
       311          82  LOADREF                                 ; Archivo: LinkedSearchBinaryTree.txt línea: 286 columna: 1.
       312           4  4                                       ; Archivo: LinkedSearchBinaryTree.txt línea: 286 columna: 9.
       313         100  CALL                                    ; Archivo: LinkedSearchBinaryTree.txt línea: 287 columna: 1.
       314          81  STORE                                   ; Archivo: LinkedSearchBinaryTree.txt línea: 291 columna: 1.
       315           5  5                                       ; Archivo: LinkedSearchBinaryTree.txt línea: 291 columna: 7.
       316         125  STOREFP                                 ; Archivo: LinkedSearchBinaryTree.txt línea: 292 columna: 1.
       317         103  RET                                     ; Archivo: LinkedSearchBinaryTree.txt línea: 293 columna: 1.
       318           2  2                                       ; Archivo: LinkedSearchBinaryTree.txt línea: 293 columna: 5.
       319         125  STOREFP                                 ; Archivo: LinkedSearchBinaryTree.txt línea: 294 columna: 1.
       320         103  RET                                     ; Archivo: LinkedSearchBinaryTree.txt línea: 295 columna: 1.
       321           2  2                                       ; Archivo: LinkedSearchBinaryTree.txt línea: 295 columna: 5.
       322         124  L_MET_LinkedBinaryTree_isInternal: LOADFP; Archivo: LinkedSearchBinaryTree.txt línea: 298 columna: 36.
       323         122  LOADSP                                  ; Archivo: LinkedSearchBinaryTree.txt línea: 299 columna: 1.
       324         125  STOREFP                                 ; Archivo: LinkedSearchBinaryTree.txt línea: 300 columna: 1.
       325          80  LOAD                                    ; Archivo: LinkedSearchBinaryTree.txt línea: 302 columna: 1.
       326           3  3                                       ; Archivo: LinkedSearchBinaryTree.txt línea: 302 columna: 6.
       327         101  RMEM                                    ; Archivo: LinkedSearchBinaryTree.txt línea: 303 columna: 1.
       328           1  1                                       ; Archivo: LinkedSearchBinaryTree.txt línea: 303 columna: 6.
       329          32  SWAP                                    ; Archivo: LinkedSearchBinaryTree.txt línea: 304 columna: 1.
       330          80  LOAD                                    ; Archivo: LinkedSearchBinaryTree.txt línea: 306 columna: 1.
       331           4  4                                       ; Archivo: LinkedSearchBinaryTree.txt línea: 306 columna: 6.
       332          32  SWAP                                    ; Archivo: LinkedSearchBinaryTree.txt línea: 307 columna: 1.
       333          30  DUP                                     ; Archivo: LinkedSearchBinaryTree.txt línea: 308 columna: 1.
       334          82  LOADREF                                 ; Archivo: LinkedSearchBinaryTree.txt línea: 309 columna: 1.
       335           0  0                                       ; Archivo: LinkedSearchBinaryTree.txt línea: 309 columna: 9.
       336          82  LOADREF                                 ; Archivo: LinkedSearchBinaryTree.txt línea: 310 columna: 1.
       337          14  14                                      ; Archivo: LinkedSearchBinaryTree.txt línea: 310 columna: 9.
       338         100  CALL                                    ; Archivo: LinkedSearchBinaryTree.txt línea: 311 columna: 1.
       339          80  LOAD                                    ; Archivo: LinkedSearchBinaryTree.txt línea: 314 columna: 1.
       340           3  3                                       ; Archivo: LinkedSearchBinaryTree.txt línea: 314 columna: 6.
       341         101  RMEM                                    ; Archivo: LinkedSearchBinaryTree.txt línea: 315 columna: 1.
       342           1  1                                       ; Archivo: LinkedSearchBinaryTree.txt línea: 315 columna: 6.
       343          32  SWAP                                    ; Archivo: LinkedSearchBinaryTree.txt línea: 316 columna: 1.
       344          80  LOAD                                    ; Archivo: LinkedSearchBinaryTree.txt línea: 318 columna: 1.
       345           4  4                                       ; Archivo: LinkedSearchBinaryTree.txt línea: 318 columna: 6.
       346          32  SWAP                                    ; Archivo: LinkedSearchBinaryTree.txt línea: 319 columna: 1.
       347          30  DUP                                     ; Archivo: LinkedSearchBinaryTree.txt línea: 320 columna: 1.
       348          82  LOADREF                                 ; Archivo: LinkedSearchBinaryTree.txt línea: 321 columna: 1.
       349           0  0                                       ; Archivo: LinkedSearchBinaryTree.txt línea: 321 columna: 9.
       350          82  LOADREF                                 ; Archivo: LinkedSearchBinaryTree.txt línea: 322 columna: 1.
       351          15  15                                      ; Archivo: LinkedSearchBinaryTree.txt línea: 322 columna: 9.
       352         100  CALL                                    ; Archivo: LinkedSearchBinaryTree.txt línea: 323 columna: 1.
       353           9  OR                                      ; Archivo: LinkedSearchBinaryTree.txt línea: 326 columna: 1.
       354          81  STORE                                   ; Archivo: LinkedSearchBinaryTree.txt línea: 329 columna: 1.
       355           5  5                                       ; Archivo: LinkedSearchBinaryTree.txt línea: 329 columna: 7.
       356         125  STOREFP                                 ; Archivo: LinkedSearchBinaryTree.txt línea: 330 columna: 1.
       357         103  RET                                     ; Archivo: LinkedSearchBinaryTree.txt línea: 331 columna: 1.
       358           2  2                                       ; Archivo: LinkedSearchBinaryTree.txt línea: 331 columna: 5.
       359         125  STOREFP                                 ; Archivo: LinkedSearchBinaryTree.txt línea: 332 columna: 1.
       360         103  RET                                     ; Archivo: LinkedSearchBinaryTree.txt línea: 333 columna: 1.
       361           2  2                                       ; Archivo: LinkedSearchBinaryTree.txt línea: 333 columna: 5.
       362         124  L_MET_LinkedBinaryTree_isExternal: LOADFP; Archivo: LinkedSearchBinaryTree.txt línea: 336 columna: 36.
       363         122  LOADSP                                  ; Archivo: LinkedSearchBinaryTree.txt línea: 337 columna: 1.
       364         125  STOREFP                                 ; Archivo: LinkedSearchBinaryTree.txt línea: 338 columna: 1.
       365          80  LOAD                                    ; Archivo: LinkedSearchBinaryTree.txt línea: 340 columna: 1.
       366           3  3                                       ; Archivo: LinkedSearchBinaryTree.txt línea: 340 columna: 6.
       367         101  RMEM                                    ; Archivo: LinkedSearchBinaryTree.txt línea: 341 columna: 1.
       368           1  1                                       ; Archivo: LinkedSearchBinaryTree.txt línea: 341 columna: 6.
       369          32  SWAP                                    ; Archivo: LinkedSearchBinaryTree.txt línea: 342 columna: 1.
       370          80  LOAD                                    ; Archivo: LinkedSearchBinaryTree.txt línea: 344 columna: 1.
       371           4  4                                       ; Archivo: LinkedSearchBinaryTree.txt línea: 344 columna: 6.
       372          32  SWAP                                    ; Archivo: LinkedSearchBinaryTree.txt línea: 345 columna: 1.
       373          30  DUP                                     ; Archivo: LinkedSearchBinaryTree.txt línea: 346 columna: 1.
       374          82  LOADREF                                 ; Archivo: LinkedSearchBinaryTree.txt línea: 347 columna: 1.
       375           0  0                                       ; Archivo: LinkedSearchBinaryTree.txt línea: 347 columna: 9.
       376          82  LOADREF                                 ; Archivo: LinkedSearchBinaryTree.txt línea: 348 columna: 1.
       377           6  6                                       ; Archivo: LinkedSearchBinaryTree.txt línea: 348 columna: 9.
       378         100  CALL                                    ; Archivo: LinkedSearchBinaryTree.txt línea: 349 columna: 1.
       379          10  NOT                                     ; Archivo: LinkedSearchBinaryTree.txt línea: 352 columna: 1.
       380          81  STORE                                   ; Archivo: LinkedSearchBinaryTree.txt línea: 355 columna: 1.
       381           5  5                                       ; Archivo: LinkedSearchBinaryTree.txt línea: 355 columna: 7.
       382         125  STOREFP                                 ; Archivo: LinkedSearchBinaryTree.txt línea: 356 columna: 1.
       383         103  RET                                     ; Archivo: LinkedSearchBinaryTree.txt línea: 357 columna: 1.
       384           2  2                                       ; Archivo: LinkedSearchBinaryTree.txt línea: 357 columna: 5.
       385         125  STOREFP                                 ; Archivo: LinkedSearchBinaryTree.txt línea: 358 columna: 1.
       386         103  RET                                     ; Archivo: LinkedSearchBinaryTree.txt línea: 359 columna: 1.
       387           2  2                                       ; Archivo: LinkedSearchBinaryTree.txt línea: 359 columna: 5.
       388         124  L_MET_LinkedBinaryTree_isRoot: LOADFP   ; Archivo: LinkedSearchBinaryTree.txt línea: 362 columna: 32.
       389         122  LOADSP                                  ; Archivo: LinkedSearchBinaryTree.txt línea: 363 columna: 1.
       390         125  STOREFP                                 ; Archivo: LinkedSearchBinaryTree.txt línea: 364 columna: 1.
       391          80  LOAD                                    ; Archivo: LinkedSearchBinaryTree.txt línea: 366 columna: 1.
       392           4  4                                       ; Archivo: LinkedSearchBinaryTree.txt línea: 366 columna: 6.
       393          80  LOAD                                    ; Archivo: LinkedSearchBinaryTree.txt línea: 368 columna: 1.
       394           3  3                                       ; Archivo: LinkedSearchBinaryTree.txt línea: 368 columna: 6.
       395          82  LOADREF                                 ; Archivo: LinkedSearchBinaryTree.txt línea: 369 columna: 1.
       396           1  1                                       ; Archivo: LinkedSearchBinaryTree.txt línea: 369 columna: 9.
       397          11  EQ                                      ; Archivo: LinkedSearchBinaryTree.txt línea: 371 columna: 1.
       398          81  STORE                                   ; Archivo: LinkedSearchBinaryTree.txt línea: 374 columna: 1.
       399           5  5                                       ; Archivo: LinkedSearchBinaryTree.txt línea: 374 columna: 7.
       400         125  STOREFP                                 ; Archivo: LinkedSearchBinaryTree.txt línea: 375 columna: 1.
       401         103  RET                                     ; Archivo: LinkedSearchBinaryTree.txt línea: 376 columna: 1.
       402           2  2                                       ; Archivo: LinkedSearchBinaryTree.txt línea: 376 columna: 5.
       403         125  STOREFP                                 ; Archivo: LinkedSearchBinaryTree.txt línea: 377 columna: 1.
       404         103  RET                                     ; Archivo: LinkedSearchBinaryTree.txt línea: 378 columna: 1.
       405           2  2                                       ; Archivo: LinkedSearchBinaryTree.txt línea: 378 columna: 5.
       406         124  L_MET_LinkedBinaryTree_setRoot: LOADFP  ; Archivo: LinkedSearchBinaryTree.txt línea: 381 columna: 33.
       407         122  LOADSP                                  ; Archivo: LinkedSearchBinaryTree.txt línea: 382 columna: 1.
       408         125  STOREFP                                 ; Archivo: LinkedSearchBinaryTree.txt línea: 383 columna: 1.
       409          80  LOAD                                    ; Archivo: LinkedSearchBinaryTree.txt línea: 385 columna: 1.
       410           3  3                                       ; Archivo: LinkedSearchBinaryTree.txt línea: 385 columna: 6.
       411         101  RMEM                                    ; Archivo: LinkedSearchBinaryTree.txt línea: 386 columna: 1.
       412           1  1                                       ; Archivo: LinkedSearchBinaryTree.txt línea: 386 columna: 6.
       413          32  SWAP                                    ; Archivo: LinkedSearchBinaryTree.txt línea: 387 columna: 1.
       414          30  DUP                                     ; Archivo: LinkedSearchBinaryTree.txt línea: 388 columna: 1.
       415          82  LOADREF                                 ; Archivo: LinkedSearchBinaryTree.txt línea: 389 columna: 1.
       416           0  0                                       ; Archivo: LinkedSearchBinaryTree.txt línea: 389 columna: 9.
       417          82  LOADREF                                 ; Archivo: LinkedSearchBinaryTree.txt línea: 390 columna: 1.
       418           2  2                                       ; Archivo: LinkedSearchBinaryTree.txt línea: 390 columna: 9.
       419         100  CALL                                    ; Archivo: LinkedSearchBinaryTree.txt línea: 391 columna: 1.
       420          41  BF                                      ; Archivo: LinkedSearchBinaryTree.txt línea: 394 columna: 1.
       421         460  L_ENDIF_3_setRoot_LinkedBinaryTree      ; Archivo: LinkedSearchBinaryTree.txt línea: 394 columna: 4.
       422         101  RMEM                                    ; Archivo: LinkedSearchBinaryTree.txt línea: 396 columna: 1.
       423           1  1                                       ; Archivo: LinkedSearchBinaryTree.txt línea: 396 columna: 6.
       424           1  PUSH                                    ; Archivo: LinkedSearchBinaryTree.txt línea: 397 columna: 1.
       425           5  5                                       ; Archivo: LinkedSearchBinaryTree.txt línea: 397 columna: 6.
       426           1  PUSH                                    ; Archivo: LinkedSearchBinaryTree.txt línea: 398 columna: 1.
       427         118  L_SIMPLE_MALLOC                         ; Archivo: LinkedSearchBinaryTree.txt línea: 398 columna: 6.
       428         100  CALL                                    ; Archivo: LinkedSearchBinaryTree.txt línea: 399 columna: 1.
       429          30  DUP                                     ; Archivo: LinkedSearchBinaryTree.txt línea: 400 columna: 1.
       430           1  PUSH                                    ; Archivo: LinkedSearchBinaryTree.txt línea: 401 columna: 1.
       431        2834  VT_Node                                 ; Archivo: LinkedSearchBinaryTree.txt línea: 401 columna: 6.
       432          83  STOREREF                                ; Archivo: LinkedSearchBinaryTree.txt línea: 402 columna: 1.
       433           0  0                                       ; Archivo: LinkedSearchBinaryTree.txt línea: 402 columna: 10.
       434          30  DUP                                     ; Archivo: LinkedSearchBinaryTree.txt línea: 403 columna: 1.
       435          80  LOAD                                    ; Archivo: LinkedSearchBinaryTree.txt línea: 405 columna: 1.
       436           4  4                                       ; Archivo: LinkedSearchBinaryTree.txt línea: 405 columna: 6.
       437          32  SWAP                                    ; Archivo: LinkedSearchBinaryTree.txt línea: 407 columna: 1.
       438           1  PUSH                                    ; Archivo: LinkedSearchBinaryTree.txt línea: 409 columna: 1.
       439        1865  L_CTOR_Node_Node                        ; Archivo: LinkedSearchBinaryTree.txt línea: 409 columna: 6.
       440         100  CALL                                    ; Archivo: LinkedSearchBinaryTree.txt línea: 410 columna: 1.
       441          80  LOAD                                    ; Archivo: LinkedSearchBinaryTree.txt línea: 412 columna: 1.
       442           3  3                                       ; Archivo: LinkedSearchBinaryTree.txt línea: 412 columna: 6.
       443          32  SWAP                                    ; Archivo: LinkedSearchBinaryTree.txt línea: 413 columna: 1.
       444          83  STOREREF                                ; Archivo: LinkedSearchBinaryTree.txt línea: 414 columna: 1.
       445           1  1                                       ; Archivo: LinkedSearchBinaryTree.txt línea: 414 columna: 10.
       446          80  LOAD                                    ; Archivo: LinkedSearchBinaryTree.txt línea: 416 columna: 1.
       447           3  3                                       ; Archivo: LinkedSearchBinaryTree.txt línea: 416 columna: 6.
       448          82  LOADREF                                 ; Archivo: LinkedSearchBinaryTree.txt línea: 417 columna: 1.
       449           2  2                                       ; Archivo: LinkedSearchBinaryTree.txt línea: 417 columna: 9.
       450           1  PUSH                                    ; Archivo: LinkedSearchBinaryTree.txt línea: 419 columna: 1.
       451           1  1                                       ; Archivo: LinkedSearchBinaryTree.txt línea: 419 columna: 6.
       452           2  ADD                                     ; Archivo: LinkedSearchBinaryTree.txt línea: 421 columna: 1.
       453          80  LOAD                                    ; Archivo: LinkedSearchBinaryTree.txt línea: 423 columna: 1.
       454           3  3                                       ; Archivo: LinkedSearchBinaryTree.txt línea: 423 columna: 6.
       455          32  SWAP                                    ; Archivo: LinkedSearchBinaryTree.txt línea: 424 columna: 1.
       456          83  STOREREF                                ; Archivo: LinkedSearchBinaryTree.txt línea: 425 columna: 1.
       457           2  2                                       ; Archivo: LinkedSearchBinaryTree.txt línea: 425 columna: 10.
       458          40  JUMP                                    ; Archivo: LinkedSearchBinaryTree.txt línea: 426 columna: 1.
       459         474  L_ENDELSE_3_setRoot_LinkedBinaryTree    ; Archivo: LinkedSearchBinaryTree.txt línea: 426 columna: 6.
       460           0  L_ENDIF_3_setRoot_LinkedBinaryTree: NOP ; Archivo: LinkedSearchBinaryTree.txt línea: 427 columna: 37.
       461          80  LOAD                                    ; Archivo: LinkedSearchBinaryTree.txt línea: 429 columna: 1.
       462           3  3                                       ; Archivo: LinkedSearchBinaryTree.txt línea: 429 columna: 6.
       463          82  LOADREF                                 ; Archivo: LinkedSearchBinaryTree.txt línea: 430 columna: 1.
       464           1  1                                       ; Archivo: LinkedSearchBinaryTree.txt línea: 430 columna: 9.
       465          80  LOAD                                    ; Archivo: LinkedSearchBinaryTree.txt línea: 433 columna: 1.
       466           4  4                                       ; Archivo: LinkedSearchBinaryTree.txt línea: 433 columna: 6.
       467          32  SWAP                                    ; Archivo: LinkedSearchBinaryTree.txt línea: 434 columna: 1.
       468          30  DUP                                     ; Archivo: LinkedSearchBinaryTree.txt línea: 436 columna: 1.
       469          82  LOADREF                                 ; Archivo: LinkedSearchBinaryTree.txt línea: 437 columna: 1.
       470           0  0                                       ; Archivo: LinkedSearchBinaryTree.txt línea: 437 columna: 9.
       471          82  LOADREF                                 ; Archivo: LinkedSearchBinaryTree.txt línea: 438 columna: 1.
       472           3  3                                       ; Archivo: LinkedSearchBinaryTree.txt línea: 438 columna: 9.
       473         100  CALL                                    ; Archivo: LinkedSearchBinaryTree.txt línea: 439 columna: 1.
       474           0  L_ENDELSE_3_setRoot_LinkedBinaryTree: NOP; Archivo: LinkedSearchBinaryTree.txt línea: 440 columna: 39.
       475         125  STOREFP                                 ; Archivo: LinkedSearchBinaryTree.txt línea: 441 columna: 1.
       476         103  RET                                     ; Archivo: LinkedSearchBinaryTree.txt línea: 442 columna: 1.
       477           2  2                                       ; Archivo: LinkedSearchBinaryTree.txt línea: 442 columna: 5.
       478         124  L_MET_LinkedBinaryTree_addLeft: LOADFP  ; Archivo: LinkedSearchBinaryTree.txt línea: 445 columna: 33.
       479         122  LOADSP                                  ; Archivo: LinkedSearchBinaryTree.txt línea: 446 columna: 1.
       480         125  STOREFP                                 ; Archivo: LinkedSearchBinaryTree.txt línea: 447 columna: 1.
       481         101  RMEM                                    ; Archivo: LinkedSearchBinaryTree.txt línea: 448 columna: 1.
       482           1  1                                       ; Archivo: LinkedSearchBinaryTree.txt línea: 448 columna: 6.
       483          80  LOAD                                    ; Archivo: LinkedSearchBinaryTree.txt línea: 450 columna: 1.
       484           3  3                                       ; Archivo: LinkedSearchBinaryTree.txt línea: 450 columna: 6.
       485         101  RMEM                                    ; Archivo: LinkedSearchBinaryTree.txt línea: 451 columna: 1.
       486           1  1                                       ; Archivo: LinkedSearchBinaryTree.txt línea: 451 columna: 6.
       487          32  SWAP                                    ; Archivo: LinkedSearchBinaryTree.txt línea: 452 columna: 1.
       488          80  LOAD                                    ; Archivo: LinkedSearchBinaryTree.txt línea: 454 columna: 1.
       489           5  5                                       ; Archivo: LinkedSearchBinaryTree.txt línea: 454 columna: 6.
       490          32  SWAP                                    ; Archivo: LinkedSearchBinaryTree.txt línea: 455 columna: 1.
       491          30  DUP                                     ; Archivo: LinkedSearchBinaryTree.txt línea: 456 columna: 1.
       492          82  LOADREF                                 ; Archivo: LinkedSearchBinaryTree.txt línea: 457 columna: 1.
       493           0  0                                       ; Archivo: LinkedSearchBinaryTree.txt línea: 457 columna: 9.
       494          82  LOADREF                                 ; Archivo: LinkedSearchBinaryTree.txt línea: 458 columna: 1.
       495          14  14                                      ; Archivo: LinkedSearchBinaryTree.txt línea: 458 columna: 9.
       496         100  CALL                                    ; Archivo: LinkedSearchBinaryTree.txt línea: 459 columna: 1.
       497          41  BF                                      ; Archivo: LinkedSearchBinaryTree.txt línea: 462 columna: 1.
       498         508  L_ENDIFTHEN_4_addLeft_LinkedBinaryTree  ; Archivo: LinkedSearchBinaryTree.txt línea: 462 columna: 4.
       499           1  PUSH                                    ; Archivo: LinkedSearchBinaryTree.txt línea: 464 columna: 1.
       500           0  0                                       ; Archivo: LinkedSearchBinaryTree.txt línea: 464 columna: 6.
       501          81  STORE                                   ; Archivo: LinkedSearchBinaryTree.txt línea: 467 columna: 1.
       502           6  6                                       ; Archivo: LinkedSearchBinaryTree.txt línea: 467 columna: 7.
       503         102  FMEM                                    ; Archivo: LinkedSearchBinaryTree.txt línea: 468 columna: 1.
       504           1  1                                       ; Archivo: LinkedSearchBinaryTree.txt línea: 468 columna: 6.
       505         125  STOREFP                                 ; Archivo: LinkedSearchBinaryTree.txt línea: 469 columna: 1.
       506         103  RET                                     ; Archivo: LinkedSearchBinaryTree.txt línea: 470 columna: 1.
       507           3  3                                       ; Archivo: LinkedSearchBinaryTree.txt línea: 470 columna: 5.
       508           0  L_ENDIFTHEN_4_addLeft_LinkedBinaryTree: NOP; Archivo: LinkedSearchBinaryTree.txt línea: 471 columna: 41.
       509         101  RMEM                                    ; Archivo: LinkedSearchBinaryTree.txt línea: 473 columna: 1.
       510           1  1                                       ; Archivo: LinkedSearchBinaryTree.txt línea: 473 columna: 6.
       511           1  PUSH                                    ; Archivo: LinkedSearchBinaryTree.txt línea: 474 columna: 1.
       512           5  5                                       ; Archivo: LinkedSearchBinaryTree.txt línea: 474 columna: 6.
       513           1  PUSH                                    ; Archivo: LinkedSearchBinaryTree.txt línea: 475 columna: 1.
       514         118  L_SIMPLE_MALLOC                         ; Archivo: LinkedSearchBinaryTree.txt línea: 475 columna: 6.
       515         100  CALL                                    ; Archivo: LinkedSearchBinaryTree.txt línea: 476 columna: 1.
       516          30  DUP                                     ; Archivo: LinkedSearchBinaryTree.txt línea: 477 columna: 1.
       517           1  PUSH                                    ; Archivo: LinkedSearchBinaryTree.txt línea: 478 columna: 1.
       518        2834  VT_Node                                 ; Archivo: LinkedSearchBinaryTree.txt línea: 478 columna: 6.
       519          83  STOREREF                                ; Archivo: LinkedSearchBinaryTree.txt línea: 479 columna: 1.
       520           0  0                                       ; Archivo: LinkedSearchBinaryTree.txt línea: 479 columna: 10.
       521          30  DUP                                     ; Archivo: LinkedSearchBinaryTree.txt línea: 480 columna: 1.
       522          80  LOAD                                    ; Archivo: LinkedSearchBinaryTree.txt línea: 482 columna: 1.
       523           4  4                                       ; Archivo: LinkedSearchBinaryTree.txt línea: 482 columna: 6.
       524          32  SWAP                                    ; Archivo: LinkedSearchBinaryTree.txt línea: 484 columna: 1.
       525           1  PUSH                                    ; Archivo: LinkedSearchBinaryTree.txt línea: 486 columna: 1.
       526        1865  L_CTOR_Node_Node                        ; Archivo: LinkedSearchBinaryTree.txt línea: 486 columna: 6.
       527         100  CALL                                    ; Archivo: LinkedSearchBinaryTree.txt línea: 487 columna: 1.
       528          81  STORE                                   ; Archivo: LinkedSearchBinaryTree.txt línea: 489 columna: 1.
       529           0  0                                       ; Archivo: LinkedSearchBinaryTree.txt línea: 489 columna: 7.
       530          80  LOAD                                    ; Archivo: LinkedSearchBinaryTree.txt línea: 491 columna: 1.
       531           0  0                                       ; Archivo: LinkedSearchBinaryTree.txt línea: 491 columna: 6.
       532          80  LOAD                                    ; Archivo: LinkedSearchBinaryTree.txt línea: 494 columna: 1.
       533           5  5                                       ; Archivo: LinkedSearchBinaryTree.txt línea: 494 columna: 6.
       534          32  SWAP                                    ; Archivo: LinkedSearchBinaryTree.txt línea: 495 columna: 1.
       535          30  DUP                                     ; Archivo: LinkedSearchBinaryTree.txt línea: 497 columna: 1.
       536          82  LOADREF                                 ; Archivo: LinkedSearchBinaryTree.txt línea: 498 columna: 1.
       537           0  0                                       ; Archivo: LinkedSearchBinaryTree.txt línea: 498 columna: 9.
       538          82  LOADREF                                 ; Archivo: LinkedSearchBinaryTree.txt línea: 499 columna: 1.
       539           0  0                                       ; Archivo: LinkedSearchBinaryTree.txt línea: 499 columna: 9.
       540         100  CALL                                    ; Archivo: LinkedSearchBinaryTree.txt línea: 500 columna: 1.
       541          80  LOAD                                    ; Archivo: LinkedSearchBinaryTree.txt línea: 502 columna: 1.
       542           5  5                                       ; Archivo: LinkedSearchBinaryTree.txt línea: 502 columna: 6.
       543          80  LOAD                                    ; Archivo: LinkedSearchBinaryTree.txt línea: 505 columna: 1.
       544           0  0                                       ; Archivo: LinkedSearchBinaryTree.txt línea: 505 columna: 6.
       545          32  SWAP                                    ; Archivo: LinkedSearchBinaryTree.txt línea: 506 columna: 1.
       546          30  DUP                                     ; Archivo: LinkedSearchBinaryTree.txt línea: 508 columna: 1.
       547          82  LOADREF                                 ; Archivo: LinkedSearchBinaryTree.txt línea: 509 columna: 1.
       548           0  0                                       ; Archivo: LinkedSearchBinaryTree.txt línea: 509 columna: 9.
       549          82  LOADREF                                 ; Archivo: LinkedSearchBinaryTree.txt línea: 510 columna: 1.
       550           1  1                                       ; Archivo: LinkedSearchBinaryTree.txt línea: 510 columna: 9.
       551         100  CALL                                    ; Archivo: LinkedSearchBinaryTree.txt línea: 511 columna: 1.
       552          80  LOAD                                    ; Archivo: LinkedSearchBinaryTree.txt línea: 513 columna: 1.
       553           3  3                                       ; Archivo: LinkedSearchBinaryTree.txt línea: 513 columna: 6.
       554          82  LOADREF                                 ; Archivo: LinkedSearchBinaryTree.txt línea: 514 columna: 1.
       555           2  2                                       ; Archivo: LinkedSearchBinaryTree.txt línea: 514 columna: 9.
       556           1  PUSH                                    ; Archivo: LinkedSearchBinaryTree.txt línea: 516 columna: 1.
       557           1  1                                       ; Archivo: LinkedSearchBinaryTree.txt línea: 516 columna: 6.
       558           2  ADD                                     ; Archivo: LinkedSearchBinaryTree.txt línea: 518 columna: 1.
       559          80  LOAD                                    ; Archivo: LinkedSearchBinaryTree.txt línea: 520 columna: 1.
       560           3  3                                       ; Archivo: LinkedSearchBinaryTree.txt línea: 520 columna: 6.
       561          32  SWAP                                    ; Archivo: LinkedSearchBinaryTree.txt línea: 521 columna: 1.
       562          83  STOREREF                                ; Archivo: LinkedSearchBinaryTree.txt línea: 522 columna: 1.
       563           2  2                                       ; Archivo: LinkedSearchBinaryTree.txt línea: 522 columna: 10.
       564          80  LOAD                                    ; Archivo: LinkedSearchBinaryTree.txt línea: 524 columna: 1.
       565           0  0                                       ; Archivo: LinkedSearchBinaryTree.txt línea: 524 columna: 6.
       566          81  STORE                                   ; Archivo: LinkedSearchBinaryTree.txt línea: 527 columna: 1.
       567           6  6                                       ; Archivo: LinkedSearchBinaryTree.txt línea: 527 columna: 7.
       568         102  FMEM                                    ; Archivo: LinkedSearchBinaryTree.txt línea: 528 columna: 1.
       569           1  1                                       ; Archivo: LinkedSearchBinaryTree.txt línea: 528 columna: 6.
       570         125  STOREFP                                 ; Archivo: LinkedSearchBinaryTree.txt línea: 529 columna: 1.
       571         103  RET                                     ; Archivo: LinkedSearchBinaryTree.txt línea: 530 columna: 1.
       572           3  3                                       ; Archivo: LinkedSearchBinaryTree.txt línea: 530 columna: 5.
       573         102  FMEM                                    ; Archivo: LinkedSearchBinaryTree.txt línea: 531 columna: 1.
       574           1  1                                       ; Archivo: LinkedSearchBinaryTree.txt línea: 531 columna: 6.
       575         125  STOREFP                                 ; Archivo: LinkedSearchBinaryTree.txt línea: 532 columna: 1.
       576         103  RET                                     ; Archivo: LinkedSearchBinaryTree.txt línea: 533 columna: 1.
       577           3  3                                       ; Archivo: LinkedSearchBinaryTree.txt línea: 533 columna: 5.
       578         124  L_MET_LinkedBinaryTree_addRight: LOADFP ; Archivo: LinkedSearchBinaryTree.txt línea: 536 columna: 34.
       579         122  LOADSP                                  ; Archivo: LinkedSearchBinaryTree.txt línea: 537 columna: 1.
       580         125  STOREFP                                 ; Archivo: LinkedSearchBinaryTree.txt línea: 538 columna: 1.
       581         101  RMEM                                    ; Archivo: LinkedSearchBinaryTree.txt línea: 539 columna: 1.
       582           1  1                                       ; Archivo: LinkedSearchBinaryTree.txt línea: 539 columna: 6.
       583          80  LOAD                                    ; Archivo: LinkedSearchBinaryTree.txt línea: 541 columna: 1.
       584           3  3                                       ; Archivo: LinkedSearchBinaryTree.txt línea: 541 columna: 6.
       585         101  RMEM                                    ; Archivo: LinkedSearchBinaryTree.txt línea: 542 columna: 1.
       586           1  1                                       ; Archivo: LinkedSearchBinaryTree.txt línea: 542 columna: 6.
       587          32  SWAP                                    ; Archivo: LinkedSearchBinaryTree.txt línea: 543 columna: 1.
       588          80  LOAD                                    ; Archivo: LinkedSearchBinaryTree.txt línea: 545 columna: 1.
       589           5  5                                       ; Archivo: LinkedSearchBinaryTree.txt línea: 545 columna: 6.
       590          32  SWAP                                    ; Archivo: LinkedSearchBinaryTree.txt línea: 546 columna: 1.
       591          30  DUP                                     ; Archivo: LinkedSearchBinaryTree.txt línea: 547 columna: 1.
       592          82  LOADREF                                 ; Archivo: LinkedSearchBinaryTree.txt línea: 548 columna: 1.
       593           0  0                                       ; Archivo: LinkedSearchBinaryTree.txt línea: 548 columna: 9.
       594          82  LOADREF                                 ; Archivo: LinkedSearchBinaryTree.txt línea: 549 columna: 1.
       595          15  15                                      ; Archivo: LinkedSearchBinaryTree.txt línea: 549 columna: 9.
       596         100  CALL                                    ; Archivo: LinkedSearchBinaryTree.txt línea: 550 columna: 1.
       597          41  BF                                      ; Archivo: LinkedSearchBinaryTree.txt línea: 553 columna: 1.
       598         608  L_ENDIFTHEN_5_addRight_LinkedBinaryTree ; Archivo: LinkedSearchBinaryTree.txt línea: 553 columna: 4.
       599           1  PUSH                                    ; Archivo: LinkedSearchBinaryTree.txt línea: 555 columna: 1.
       600           0  0                                       ; Archivo: LinkedSearchBinaryTree.txt línea: 555 columna: 6.
       601          81  STORE                                   ; Archivo: LinkedSearchBinaryTree.txt línea: 558 columna: 1.
       602           6  6                                       ; Archivo: LinkedSearchBinaryTree.txt línea: 558 columna: 7.
       603         102  FMEM                                    ; Archivo: LinkedSearchBinaryTree.txt línea: 559 columna: 1.
       604           1  1                                       ; Archivo: LinkedSearchBinaryTree.txt línea: 559 columna: 6.
       605         125  STOREFP                                 ; Archivo: LinkedSearchBinaryTree.txt línea: 560 columna: 1.
       606         103  RET                                     ; Archivo: LinkedSearchBinaryTree.txt línea: 561 columna: 1.
       607           3  3                                       ; Archivo: LinkedSearchBinaryTree.txt línea: 561 columna: 5.
       608           0  L_ENDIFTHEN_5_addRight_LinkedBinaryTree: NOP; Archivo: LinkedSearchBinaryTree.txt línea: 562 columna: 42.
       609         101  RMEM                                    ; Archivo: LinkedSearchBinaryTree.txt línea: 564 columna: 1.
       610           1  1                                       ; Archivo: LinkedSearchBinaryTree.txt línea: 564 columna: 6.
       611           1  PUSH                                    ; Archivo: LinkedSearchBinaryTree.txt línea: 565 columna: 1.
       612           5  5                                       ; Archivo: LinkedSearchBinaryTree.txt línea: 565 columna: 6.
       613           1  PUSH                                    ; Archivo: LinkedSearchBinaryTree.txt línea: 566 columna: 1.
       614         118  L_SIMPLE_MALLOC                         ; Archivo: LinkedSearchBinaryTree.txt línea: 566 columna: 6.
       615         100  CALL                                    ; Archivo: LinkedSearchBinaryTree.txt línea: 567 columna: 1.
       616          30  DUP                                     ; Archivo: LinkedSearchBinaryTree.txt línea: 568 columna: 1.
       617           1  PUSH                                    ; Archivo: LinkedSearchBinaryTree.txt línea: 569 columna: 1.
       618        2834  VT_Node                                 ; Archivo: LinkedSearchBinaryTree.txt línea: 569 columna: 6.
       619          83  STOREREF                                ; Archivo: LinkedSearchBinaryTree.txt línea: 570 columna: 1.
       620           0  0                                       ; Archivo: LinkedSearchBinaryTree.txt línea: 570 columna: 10.
       621          30  DUP                                     ; Archivo: LinkedSearchBinaryTree.txt línea: 571 columna: 1.
       622          80  LOAD                                    ; Archivo: LinkedSearchBinaryTree.txt línea: 573 columna: 1.
       623           4  4                                       ; Archivo: LinkedSearchBinaryTree.txt línea: 573 columna: 6.
       624          32  SWAP                                    ; Archivo: LinkedSearchBinaryTree.txt línea: 575 columna: 1.
       625           1  PUSH                                    ; Archivo: LinkedSearchBinaryTree.txt línea: 577 columna: 1.
       626        1865  L_CTOR_Node_Node                        ; Archivo: LinkedSearchBinaryTree.txt línea: 577 columna: 6.
       627         100  CALL                                    ; Archivo: LinkedSearchBinaryTree.txt línea: 578 columna: 1.
       628          81  STORE                                   ; Archivo: LinkedSearchBinaryTree.txt línea: 580 columna: 1.
       629           0  0                                       ; Archivo: LinkedSearchBinaryTree.txt línea: 580 columna: 7.
       630          80  LOAD                                    ; Archivo: LinkedSearchBinaryTree.txt línea: 582 columna: 1.
       631           0  0                                       ; Archivo: LinkedSearchBinaryTree.txt línea: 582 columna: 6.
       632          80  LOAD                                    ; Archivo: LinkedSearchBinaryTree.txt línea: 585 columna: 1.
       633           5  5                                       ; Archivo: LinkedSearchBinaryTree.txt línea: 585 columna: 6.
       634          32  SWAP                                    ; Archivo: LinkedSearchBinaryTree.txt línea: 586 columna: 1.
       635          30  DUP                                     ; Archivo: LinkedSearchBinaryTree.txt línea: 588 columna: 1.
       636          82  LOADREF                                 ; Archivo: LinkedSearchBinaryTree.txt línea: 589 columna: 1.
       637           0  0                                       ; Archivo: LinkedSearchBinaryTree.txt línea: 589 columna: 9.
       638          82  LOADREF                                 ; Archivo: LinkedSearchBinaryTree.txt línea: 590 columna: 1.
       639           0  0                                       ; Archivo: LinkedSearchBinaryTree.txt línea: 590 columna: 9.
       640         100  CALL                                    ; Archivo: LinkedSearchBinaryTree.txt línea: 591 columna: 1.
       641          80  LOAD                                    ; Archivo: LinkedSearchBinaryTree.txt línea: 593 columna: 1.
       642           5  5                                       ; Archivo: LinkedSearchBinaryTree.txt línea: 593 columna: 6.
       643          80  LOAD                                    ; Archivo: LinkedSearchBinaryTree.txt línea: 596 columna: 1.
       644           0  0                                       ; Archivo: LinkedSearchBinaryTree.txt línea: 596 columna: 6.
       645          32  SWAP                                    ; Archivo: LinkedSearchBinaryTree.txt línea: 597 columna: 1.
       646          30  DUP                                     ; Archivo: LinkedSearchBinaryTree.txt línea: 599 columna: 1.
       647          82  LOADREF                                 ; Archivo: LinkedSearchBinaryTree.txt línea: 600 columna: 1.
       648           0  0                                       ; Archivo: LinkedSearchBinaryTree.txt línea: 600 columna: 9.
       649          82  LOADREF                                 ; Archivo: LinkedSearchBinaryTree.txt línea: 601 columna: 1.
       650           2  2                                       ; Archivo: LinkedSearchBinaryTree.txt línea: 601 columna: 9.
       651         100  CALL                                    ; Archivo: LinkedSearchBinaryTree.txt línea: 602 columna: 1.
       652          80  LOAD                                    ; Archivo: LinkedSearchBinaryTree.txt línea: 604 columna: 1.
       653           3  3                                       ; Archivo: LinkedSearchBinaryTree.txt línea: 604 columna: 6.
       654          82  LOADREF                                 ; Archivo: LinkedSearchBinaryTree.txt línea: 605 columna: 1.
       655           2  2                                       ; Archivo: LinkedSearchBinaryTree.txt línea: 605 columna: 9.
       656           1  PUSH                                    ; Archivo: LinkedSearchBinaryTree.txt línea: 607 columna: 1.
       657           1  1                                       ; Archivo: LinkedSearchBinaryTree.txt línea: 607 columna: 6.
       658           2  ADD                                     ; Archivo: LinkedSearchBinaryTree.txt línea: 609 columna: 1.
       659          80  LOAD                                    ; Archivo: LinkedSearchBinaryTree.txt línea: 611 columna: 1.
       660           3  3                                       ; Archivo: LinkedSearchBinaryTree.txt línea: 611 columna: 6.
       661          32  SWAP                                    ; Archivo: LinkedSearchBinaryTree.txt línea: 612 columna: 1.
       662          83  STOREREF                                ; Archivo: LinkedSearchBinaryTree.txt línea: 613 columna: 1.
       663           2  2                                       ; Archivo: LinkedSearchBinaryTree.txt línea: 613 columna: 10.
       664          80  LOAD                                    ; Archivo: LinkedSearchBinaryTree.txt línea: 615 columna: 1.
       665           0  0                                       ; Archivo: LinkedSearchBinaryTree.txt línea: 615 columna: 6.
       666          81  STORE                                   ; Archivo: LinkedSearchBinaryTree.txt línea: 618 columna: 1.
       667           6  6                                       ; Archivo: LinkedSearchBinaryTree.txt línea: 618 columna: 7.
       668         102  FMEM                                    ; Archivo: LinkedSearchBinaryTree.txt línea: 619 columna: 1.
       669           1  1                                       ; Archivo: LinkedSearchBinaryTree.txt línea: 619 columna: 6.
       670         125  STOREFP                                 ; Archivo: LinkedSearchBinaryTree.txt línea: 620 columna: 1.
       671         103  RET                                     ; Archivo: LinkedSearchBinaryTree.txt línea: 621 columna: 1.
       672           3  3                                       ; Archivo: LinkedSearchBinaryTree.txt línea: 621 columna: 5.
       673         102  FMEM                                    ; Archivo: LinkedSearchBinaryTree.txt línea: 622 columna: 1.
       674           1  1                                       ; Archivo: LinkedSearchBinaryTree.txt línea: 622 columna: 6.
       675         125  STOREFP                                 ; Archivo: LinkedSearchBinaryTree.txt línea: 623 columna: 1.
       676         103  RET                                     ; Archivo: LinkedSearchBinaryTree.txt línea: 624 columna: 1.
       677           3  3                                       ; Archivo: LinkedSearchBinaryTree.txt línea: 624 columna: 5.
       678         124  L_MET_LinkedBinaryTree_left: LOADFP     ; Archivo: LinkedSearchBinaryTree.txt línea: 627 columna: 30.
       679         122  LOADSP                                  ; Archivo: LinkedSearchBinaryTree.txt línea: 628 columna: 1.
       680         125  STOREFP                                 ; Archivo: LinkedSearchBinaryTree.txt línea: 629 columna: 1.
       681          80  LOAD                                    ; Archivo: LinkedSearchBinaryTree.txt línea: 631 columna: 1.
       682           3  3                                       ; Archivo: LinkedSearchBinaryTree.txt línea: 631 columna: 6.
       683         101  RMEM                                    ; Archivo: LinkedSearchBinaryTree.txt línea: 632 columna: 1.
       684           1  1                                       ; Archivo: LinkedSearchBinaryTree.txt línea: 632 columna: 6.
       685          32  SWAP                                    ; Archivo: LinkedSearchBinaryTree.txt línea: 633 columna: 1.
       686          80  LOAD                                    ; Archivo: LinkedSearchBinaryTree.txt línea: 635 columna: 1.
       687           4  4                                       ; Archivo: LinkedSearchBinaryTree.txt línea: 635 columna: 6.
       688          32  SWAP                                    ; Archivo: LinkedSearchBinaryTree.txt línea: 636 columna: 1.
       689          30  DUP                                     ; Archivo: LinkedSearchBinaryTree.txt línea: 637 columna: 1.
       690          82  LOADREF                                 ; Archivo: LinkedSearchBinaryTree.txt línea: 638 columna: 1.
       691           0  0                                       ; Archivo: LinkedSearchBinaryTree.txt línea: 638 columna: 9.
       692          82  LOADREF                                 ; Archivo: LinkedSearchBinaryTree.txt línea: 639 columna: 1.
       693           7  7                                       ; Archivo: LinkedSearchBinaryTree.txt línea: 639 columna: 9.
       694         100  CALL                                    ; Archivo: LinkedSearchBinaryTree.txt línea: 640 columna: 1.
       695          41  BF                                      ; Archivo: LinkedSearchBinaryTree.txt línea: 643 columna: 1.
       696         704  L_ENDIFTHEN_6_left_LinkedBinaryTree     ; Archivo: LinkedSearchBinaryTree.txt línea: 643 columna: 4.
       697           1  PUSH                                    ; Archivo: LinkedSearchBinaryTree.txt línea: 645 columna: 1.
       698           0  0                                       ; Archivo: LinkedSearchBinaryTree.txt línea: 645 columna: 6.
       699          81  STORE                                   ; Archivo: LinkedSearchBinaryTree.txt línea: 648 columna: 1.
       700           5  5                                       ; Archivo: LinkedSearchBinaryTree.txt línea: 648 columna: 7.
       701         125  STOREFP                                 ; Archivo: LinkedSearchBinaryTree.txt línea: 649 columna: 1.
       702         103  RET                                     ; Archivo: LinkedSearchBinaryTree.txt línea: 650 columna: 1.
       703           2  2                                       ; Archivo: LinkedSearchBinaryTree.txt línea: 650 columna: 5.
       704           0  L_ENDIFTHEN_6_left_LinkedBinaryTree: NOP; Archivo: LinkedSearchBinaryTree.txt línea: 651 columna: 38.
       705          80  LOAD                                    ; Archivo: LinkedSearchBinaryTree.txt línea: 653 columna: 1.
       706           4  4                                       ; Archivo: LinkedSearchBinaryTree.txt línea: 653 columna: 6.
       707         101  RMEM                                    ; Archivo: LinkedSearchBinaryTree.txt línea: 655 columna: 1.
       708           1  1                                       ; Archivo: LinkedSearchBinaryTree.txt línea: 655 columna: 6.
       709          32  SWAP                                    ; Archivo: LinkedSearchBinaryTree.txt línea: 656 columna: 1.
       710          30  DUP                                     ; Archivo: LinkedSearchBinaryTree.txt línea: 658 columna: 1.
       711          82  LOADREF                                 ; Archivo: LinkedSearchBinaryTree.txt línea: 659 columna: 1.
       712           0  0                                       ; Archivo: LinkedSearchBinaryTree.txt línea: 659 columna: 9.
       713          82  LOADREF                                 ; Archivo: LinkedSearchBinaryTree.txt línea: 660 columna: 1.
       714           6  6                                       ; Archivo: LinkedSearchBinaryTree.txt línea: 660 columna: 9.
       715         100  CALL                                    ; Archivo: LinkedSearchBinaryTree.txt línea: 661 columna: 1.
       716          81  STORE                                   ; Archivo: LinkedSearchBinaryTree.txt línea: 665 columna: 1.
       717           5  5                                       ; Archivo: LinkedSearchBinaryTree.txt línea: 665 columna: 7.
       718         125  STOREFP                                 ; Archivo: LinkedSearchBinaryTree.txt línea: 666 columna: 1.
       719         103  RET                                     ; Archivo: LinkedSearchBinaryTree.txt línea: 667 columna: 1.
       720           2  2                                       ; Archivo: LinkedSearchBinaryTree.txt línea: 667 columna: 5.
       721         125  STOREFP                                 ; Archivo: LinkedSearchBinaryTree.txt línea: 668 columna: 1.
       722         103  RET                                     ; Archivo: LinkedSearchBinaryTree.txt línea: 669 columna: 1.
       723           2  2                                       ; Archivo: LinkedSearchBinaryTree.txt línea: 669 columna: 5.
       724         124  L_MET_LinkedBinaryTree_right: LOADFP    ; Archivo: LinkedSearchBinaryTree.txt línea: 672 columna: 31.
       725         122  LOADSP                                  ; Archivo: LinkedSearchBinaryTree.txt línea: 673 columna: 1.
       726         125  STOREFP                                 ; Archivo: LinkedSearchBinaryTree.txt línea: 674 columna: 1.
       727          80  LOAD                                    ; Archivo: LinkedSearchBinaryTree.txt línea: 676 columna: 1.
       728           3  3                                       ; Archivo: LinkedSearchBinaryTree.txt línea: 676 columna: 6.
       729         101  RMEM                                    ; Archivo: LinkedSearchBinaryTree.txt línea: 677 columna: 1.
       730           1  1                                       ; Archivo: LinkedSearchBinaryTree.txt línea: 677 columna: 6.
       731          32  SWAP                                    ; Archivo: LinkedSearchBinaryTree.txt línea: 678 columna: 1.
       732          80  LOAD                                    ; Archivo: LinkedSearchBinaryTree.txt línea: 680 columna: 1.
       733           4  4                                       ; Archivo: LinkedSearchBinaryTree.txt línea: 680 columna: 6.
       734          32  SWAP                                    ; Archivo: LinkedSearchBinaryTree.txt línea: 681 columna: 1.
       735          30  DUP                                     ; Archivo: LinkedSearchBinaryTree.txt línea: 682 columna: 1.
       736          82  LOADREF                                 ; Archivo: LinkedSearchBinaryTree.txt línea: 683 columna: 1.
       737           0  0                                       ; Archivo: LinkedSearchBinaryTree.txt línea: 683 columna: 9.
       738          82  LOADREF                                 ; Archivo: LinkedSearchBinaryTree.txt línea: 684 columna: 1.
       739           7  7                                       ; Archivo: LinkedSearchBinaryTree.txt línea: 684 columna: 9.
       740         100  CALL                                    ; Archivo: LinkedSearchBinaryTree.txt línea: 685 columna: 1.
       741          41  BF                                      ; Archivo: LinkedSearchBinaryTree.txt línea: 688 columna: 1.
       742         750  L_ENDIFTHEN_7_right_LinkedBinaryTree    ; Archivo: LinkedSearchBinaryTree.txt línea: 688 columna: 4.
       743           1  PUSH                                    ; Archivo: LinkedSearchBinaryTree.txt línea: 690 columna: 1.
       744           0  0                                       ; Archivo: LinkedSearchBinaryTree.txt línea: 690 columna: 6.
       745          81  STORE                                   ; Archivo: LinkedSearchBinaryTree.txt línea: 693 columna: 1.
       746           5  5                                       ; Archivo: LinkedSearchBinaryTree.txt línea: 693 columna: 7.
       747         125  STOREFP                                 ; Archivo: LinkedSearchBinaryTree.txt línea: 694 columna: 1.
       748         103  RET                                     ; Archivo: LinkedSearchBinaryTree.txt línea: 695 columna: 1.
       749           2  2                                       ; Archivo: LinkedSearchBinaryTree.txt línea: 695 columna: 5.
       750           0  L_ENDIFTHEN_7_right_LinkedBinaryTree: NOP; Archivo: LinkedSearchBinaryTree.txt línea: 696 columna: 39.
       751          80  LOAD                                    ; Archivo: LinkedSearchBinaryTree.txt línea: 698 columna: 1.
       752           4  4                                       ; Archivo: LinkedSearchBinaryTree.txt línea: 698 columna: 6.
       753         101  RMEM                                    ; Archivo: LinkedSearchBinaryTree.txt línea: 700 columna: 1.
       754           1  1                                       ; Archivo: LinkedSearchBinaryTree.txt línea: 700 columna: 6.
       755          32  SWAP                                    ; Archivo: LinkedSearchBinaryTree.txt línea: 701 columna: 1.
       756          30  DUP                                     ; Archivo: LinkedSearchBinaryTree.txt línea: 703 columna: 1.
       757          82  LOADREF                                 ; Archivo: LinkedSearchBinaryTree.txt línea: 704 columna: 1.
       758           0  0                                       ; Archivo: LinkedSearchBinaryTree.txt línea: 704 columna: 9.
       759          82  LOADREF                                 ; Archivo: LinkedSearchBinaryTree.txt línea: 705 columna: 1.
       760           7  7                                       ; Archivo: LinkedSearchBinaryTree.txt línea: 705 columna: 9.
       761         100  CALL                                    ; Archivo: LinkedSearchBinaryTree.txt línea: 706 columna: 1.
       762          81  STORE                                   ; Archivo: LinkedSearchBinaryTree.txt línea: 710 columna: 1.
       763           5  5                                       ; Archivo: LinkedSearchBinaryTree.txt línea: 710 columna: 7.
       764         125  STOREFP                                 ; Archivo: LinkedSearchBinaryTree.txt línea: 711 columna: 1.
       765         103  RET                                     ; Archivo: LinkedSearchBinaryTree.txt línea: 712 columna: 1.
       766           2  2                                       ; Archivo: LinkedSearchBinaryTree.txt línea: 712 columna: 5.
       767         125  STOREFP                                 ; Archivo: LinkedSearchBinaryTree.txt línea: 713 columna: 1.
       768         103  RET                                     ; Archivo: LinkedSearchBinaryTree.txt línea: 714 columna: 1.
       769           2  2                                       ; Archivo: LinkedSearchBinaryTree.txt línea: 714 columna: 5.
       770         124  L_MET_LinkedBinaryTree_hasLeft: LOADFP  ; Archivo: LinkedSearchBinaryTree.txt línea: 717 columna: 33.
       771         122  LOADSP                                  ; Archivo: LinkedSearchBinaryTree.txt línea: 718 columna: 1.
       772         125  STOREFP                                 ; Archivo: LinkedSearchBinaryTree.txt línea: 719 columna: 1.
       773          80  LOAD                                    ; Archivo: LinkedSearchBinaryTree.txt línea: 721 columna: 1.
       774           4  4                                       ; Archivo: LinkedSearchBinaryTree.txt línea: 721 columna: 6.
       775         101  RMEM                                    ; Archivo: LinkedSearchBinaryTree.txt línea: 723 columna: 1.
       776           1  1                                       ; Archivo: LinkedSearchBinaryTree.txt línea: 723 columna: 6.
       777          32  SWAP                                    ; Archivo: LinkedSearchBinaryTree.txt línea: 724 columna: 1.
       778          30  DUP                                     ; Archivo: LinkedSearchBinaryTree.txt línea: 726 columna: 1.
       779          82  LOADREF                                 ; Archivo: LinkedSearchBinaryTree.txt línea: 727 columna: 1.
       780           0  0                                       ; Archivo: LinkedSearchBinaryTree.txt línea: 727 columna: 9.
       781          82  LOADREF                                 ; Archivo: LinkedSearchBinaryTree.txt línea: 728 columna: 1.
       782           6  6                                       ; Archivo: LinkedSearchBinaryTree.txt línea: 728 columna: 9.
       783         100  CALL                                    ; Archivo: LinkedSearchBinaryTree.txt línea: 729 columna: 1.
       784           1  PUSH                                    ; Archivo: LinkedSearchBinaryTree.txt línea: 732 columna: 1.
       785           0  0                                       ; Archivo: LinkedSearchBinaryTree.txt línea: 732 columna: 6.
       786          12  NE                                      ; Archivo: LinkedSearchBinaryTree.txt línea: 734 columna: 1.
       787          81  STORE                                   ; Archivo: LinkedSearchBinaryTree.txt línea: 737 columna: 1.
       788           5  5                                       ; Archivo: LinkedSearchBinaryTree.txt línea: 737 columna: 7.
       789         125  STOREFP                                 ; Archivo: LinkedSearchBinaryTree.txt línea: 738 columna: 1.
       790         103  RET                                     ; Archivo: LinkedSearchBinaryTree.txt línea: 739 columna: 1.
       791           2  2                                       ; Archivo: LinkedSearchBinaryTree.txt línea: 739 columna: 5.
       792         125  STOREFP                                 ; Archivo: LinkedSearchBinaryTree.txt línea: 740 columna: 1.
       793         103  RET                                     ; Archivo: LinkedSearchBinaryTree.txt línea: 741 columna: 1.
       794           2  2                                       ; Archivo: LinkedSearchBinaryTree.txt línea: 741 columna: 5.
       795         124  L_MET_LinkedBinaryTree_hasRight: LOADFP ; Archivo: LinkedSearchBinaryTree.txt línea: 744 columna: 34.
       796         122  LOADSP                                  ; Archivo: LinkedSearchBinaryTree.txt línea: 745 columna: 1.
       797         125  STOREFP                                 ; Archivo: LinkedSearchBinaryTree.txt línea: 746 columna: 1.
       798          80  LOAD                                    ; Archivo: LinkedSearchBinaryTree.txt línea: 748 columna: 1.
       799           4  4                                       ; Archivo: LinkedSearchBinaryTree.txt línea: 748 columna: 6.
       800         101  RMEM                                    ; Archivo: LinkedSearchBinaryTree.txt línea: 750 columna: 1.
       801           1  1                                       ; Archivo: LinkedSearchBinaryTree.txt línea: 750 columna: 6.
       802          32  SWAP                                    ; Archivo: LinkedSearchBinaryTree.txt línea: 751 columna: 1.
       803          30  DUP                                     ; Archivo: LinkedSearchBinaryTree.txt línea: 753 columna: 1.
       804          82  LOADREF                                 ; Archivo: LinkedSearchBinaryTree.txt línea: 754 columna: 1.
       805           0  0                                       ; Archivo: LinkedSearchBinaryTree.txt línea: 754 columna: 9.
       806          82  LOADREF                                 ; Archivo: LinkedSearchBinaryTree.txt línea: 755 columna: 1.
       807           7  7                                       ; Archivo: LinkedSearchBinaryTree.txt línea: 755 columna: 9.
       808         100  CALL                                    ; Archivo: LinkedSearchBinaryTree.txt línea: 756 columna: 1.
       809           1  PUSH                                    ; Archivo: LinkedSearchBinaryTree.txt línea: 759 columna: 1.
       810           0  0                                       ; Archivo: LinkedSearchBinaryTree.txt línea: 759 columna: 6.
       811          12  NE                                      ; Archivo: LinkedSearchBinaryTree.txt línea: 761 columna: 1.
       812          81  STORE                                   ; Archivo: LinkedSearchBinaryTree.txt línea: 764 columna: 1.
       813           5  5                                       ; Archivo: LinkedSearchBinaryTree.txt línea: 764 columna: 7.
       814         125  STOREFP                                 ; Archivo: LinkedSearchBinaryTree.txt línea: 765 columna: 1.
       815         103  RET                                     ; Archivo: LinkedSearchBinaryTree.txt línea: 766 columna: 1.
       816           2  2                                       ; Archivo: LinkedSearchBinaryTree.txt línea: 766 columna: 5.
       817         125  STOREFP                                 ; Archivo: LinkedSearchBinaryTree.txt línea: 767 columna: 1.
       818         103  RET                                     ; Archivo: LinkedSearchBinaryTree.txt línea: 768 columna: 1.
       819           2  2                                       ; Archivo: LinkedSearchBinaryTree.txt línea: 768 columna: 5.
       820         124  L_CTOR_LinkedSearchBinaryTree_LinkedSearchBinaryTree: LOADFP; Archivo: LinkedSearchBinaryTree.txt línea: 773 columna: 55.
       821         122  LOADSP                                  ; Archivo: LinkedSearchBinaryTree.txt línea: 774 columna: 1.
       822         125  STOREFP                                 ; Archivo: LinkedSearchBinaryTree.txt línea: 775 columna: 1.
       823          80  LOAD                                    ; Archivo: LinkedSearchBinaryTree.txt línea: 777 columna: 1.
       824           3  3                                       ; Archivo: LinkedSearchBinaryTree.txt línea: 777 columna: 6.
       825          30  DUP                                     ; Archivo: LinkedSearchBinaryTree.txt línea: 778 columna: 1.
       826          82  LOADREF                                 ; Archivo: LinkedSearchBinaryTree.txt línea: 779 columna: 1.
       827           0  0                                       ; Archivo: LinkedSearchBinaryTree.txt línea: 779 columna: 9.
       828          82  LOADREF                                 ; Archivo: LinkedSearchBinaryTree.txt línea: 780 columna: 1.
       829           0  0                                       ; Archivo: LinkedSearchBinaryTree.txt línea: 780 columna: 9.
       830         100  CALL                                    ; Archivo: LinkedSearchBinaryTree.txt línea: 781 columna: 1.
       831         125  STOREFP                                 ; Archivo: LinkedSearchBinaryTree.txt línea: 782 columna: 1.
       832         103  RET                                     ; Archivo: LinkedSearchBinaryTree.txt línea: 783 columna: 1.
       833           1  1                                       ; Archivo: LinkedSearchBinaryTree.txt línea: 783 columna: 5.
       834         124  L_MET_LinkedSearchBinaryTree_find: LOADFP; Archivo: LinkedSearchBinaryTree.txt línea: 786 columna: 36.
       835         122  LOADSP                                  ; Archivo: LinkedSearchBinaryTree.txt línea: 787 columna: 1.
       836         125  STOREFP                                 ; Archivo: LinkedSearchBinaryTree.txt línea: 788 columna: 1.
       837         101  RMEM                                    ; Archivo: LinkedSearchBinaryTree.txt línea: 789 columna: 1.
       838           1  1                                       ; Archivo: LinkedSearchBinaryTree.txt línea: 789 columna: 6.
       839          80  LOAD                                    ; Archivo: LinkedSearchBinaryTree.txt línea: 791 columna: 1.
       840           3  3                                       ; Archivo: LinkedSearchBinaryTree.txt línea: 791 columna: 6.
       841         101  RMEM                                    ; Archivo: LinkedSearchBinaryTree.txt línea: 792 columna: 1.
       842           1  1                                       ; Archivo: LinkedSearchBinaryTree.txt línea: 792 columna: 6.
       843          32  SWAP                                    ; Archivo: LinkedSearchBinaryTree.txt línea: 793 columna: 1.
       844          30  DUP                                     ; Archivo: LinkedSearchBinaryTree.txt línea: 794 columna: 1.
       845          82  LOADREF                                 ; Archivo: LinkedSearchBinaryTree.txt línea: 795 columna: 1.
       846           0  0                                       ; Archivo: LinkedSearchBinaryTree.txt línea: 795 columna: 9.
       847          82  LOADREF                                 ; Archivo: LinkedSearchBinaryTree.txt línea: 796 columna: 1.
       848           2  2                                       ; Archivo: LinkedSearchBinaryTree.txt línea: 796 columna: 9.
       849         100  CALL                                    ; Archivo: LinkedSearchBinaryTree.txt línea: 797 columna: 1.
       850          10  NOT                                     ; Archivo: LinkedSearchBinaryTree.txt línea: 799 columna: 1.
       851          41  BF                                      ; Archivo: LinkedSearchBinaryTree.txt línea: 801 columna: 1.
       852         901  L_ENDIF_8_find_LinkedSearchBinaryTree   ; Archivo: LinkedSearchBinaryTree.txt línea: 801 columna: 4.
       853          80  LOAD                                    ; Archivo: LinkedSearchBinaryTree.txt línea: 803 columna: 1.
       854           3  3                                       ; Archivo: LinkedSearchBinaryTree.txt línea: 803 columna: 6.
       855         101  RMEM                                    ; Archivo: LinkedSearchBinaryTree.txt línea: 804 columna: 1.
       856           1  1                                       ; Archivo: LinkedSearchBinaryTree.txt línea: 804 columna: 6.
       857          32  SWAP                                    ; Archivo: LinkedSearchBinaryTree.txt línea: 805 columna: 1.
       858          80  LOAD                                    ; Archivo: LinkedSearchBinaryTree.txt línea: 807 columna: 1.
       859           4  4                                       ; Archivo: LinkedSearchBinaryTree.txt línea: 807 columna: 6.
       860          32  SWAP                                    ; Archivo: LinkedSearchBinaryTree.txt línea: 808 columna: 1.
       861          80  LOAD                                    ; Archivo: LinkedSearchBinaryTree.txt línea: 810 columna: 1.
       862           3  3                                       ; Archivo: LinkedSearchBinaryTree.txt línea: 810 columna: 6.
       863         101  RMEM                                    ; Archivo: LinkedSearchBinaryTree.txt línea: 811 columna: 1.
       864           1  1                                       ; Archivo: LinkedSearchBinaryTree.txt línea: 811 columna: 6.
       865          32  SWAP                                    ; Archivo: LinkedSearchBinaryTree.txt línea: 812 columna: 1.
       866          30  DUP                                     ; Archivo: LinkedSearchBinaryTree.txt línea: 813 columna: 1.
       867          82  LOADREF                                 ; Archivo: LinkedSearchBinaryTree.txt línea: 814 columna: 1.
       868           0  0                                       ; Archivo: LinkedSearchBinaryTree.txt línea: 814 columna: 9.
       869          82  LOADREF                                 ; Archivo: LinkedSearchBinaryTree.txt línea: 815 columna: 1.
       870           4  4                                       ; Archivo: LinkedSearchBinaryTree.txt línea: 815 columna: 9.
       871         100  CALL                                    ; Archivo: LinkedSearchBinaryTree.txt línea: 816 columna: 1.
       872          32  SWAP                                    ; Archivo: LinkedSearchBinaryTree.txt línea: 817 columna: 1.
       873          30  DUP                                     ; Archivo: LinkedSearchBinaryTree.txt línea: 818 columna: 1.
       874          82  LOADREF                                 ; Archivo: LinkedSearchBinaryTree.txt línea: 819 columna: 1.
       875           0  0                                       ; Archivo: LinkedSearchBinaryTree.txt línea: 819 columna: 9.
       876          82  LOADREF                                 ; Archivo: LinkedSearchBinaryTree.txt línea: 820 columna: 1.
       877          18  18                                      ; Archivo: LinkedSearchBinaryTree.txt línea: 820 columna: 9.
       878         100  CALL                                    ; Archivo: LinkedSearchBinaryTree.txt línea: 821 columna: 1.
       879          81  STORE                                   ; Archivo: LinkedSearchBinaryTree.txt línea: 823 columna: 1.
       880           0  0                                       ; Archivo: LinkedSearchBinaryTree.txt línea: 823 columna: 7.
       881          80  LOAD                                    ; Archivo: LinkedSearchBinaryTree.txt línea: 825 columna: 1.
       882           0  0                                       ; Archivo: LinkedSearchBinaryTree.txt línea: 825 columna: 6.
       883         101  RMEM                                    ; Archivo: LinkedSearchBinaryTree.txt línea: 827 columna: 1.
       884           1  1                                       ; Archivo: LinkedSearchBinaryTree.txt línea: 827 columna: 6.
       885          32  SWAP                                    ; Archivo: LinkedSearchBinaryTree.txt línea: 828 columna: 1.
       886          30  DUP                                     ; Archivo: LinkedSearchBinaryTree.txt línea: 830 columna: 1.
       887          82  LOADREF                                 ; Archivo: LinkedSearchBinaryTree.txt línea: 831 columna: 1.
       888           0  0                                       ; Archivo: LinkedSearchBinaryTree.txt línea: 831 columna: 9.
       889          82  LOADREF                                 ; Archivo: LinkedSearchBinaryTree.txt línea: 832 columna: 1.
       890           5  5                                       ; Archivo: LinkedSearchBinaryTree.txt línea: 832 columna: 9.
       891         100  CALL                                    ; Archivo: LinkedSearchBinaryTree.txt línea: 833 columna: 1.
       892          81  STORE                                   ; Archivo: LinkedSearchBinaryTree.txt línea: 836 columna: 1.
       893           5  5                                       ; Archivo: LinkedSearchBinaryTree.txt línea: 836 columna: 7.
       894         102  FMEM                                    ; Archivo: LinkedSearchBinaryTree.txt línea: 837 columna: 1.
       895           1  1                                       ; Archivo: LinkedSearchBinaryTree.txt línea: 837 columna: 6.
       896         125  STOREFP                                 ; Archivo: LinkedSearchBinaryTree.txt línea: 838 columna: 1.
       897         103  RET                                     ; Archivo: LinkedSearchBinaryTree.txt línea: 839 columna: 1.
       898           2  2                                       ; Archivo: LinkedSearchBinaryTree.txt línea: 839 columna: 5.
       899          40  JUMP                                    ; Archivo: LinkedSearchBinaryTree.txt línea: 840 columna: 1.
       900         911  L_ENDELSE_8_find_LinkedSearchBinaryTree ; Archivo: LinkedSearchBinaryTree.txt línea: 840 columna: 6.
       901           0  L_ENDIF_8_find_LinkedSearchBinaryTree: NOP; Archivo: LinkedSearchBinaryTree.txt línea: 841 columna: 40.
       902           1  PUSH                                    ; Archivo: LinkedSearchBinaryTree.txt línea: 843 columna: 1.
       903           0  0                                       ; Archivo: LinkedSearchBinaryTree.txt línea: 843 columna: 6.
       904          81  STORE                                   ; Archivo: LinkedSearchBinaryTree.txt línea: 846 columna: 1.
       905           5  5                                       ; Archivo: LinkedSearchBinaryTree.txt línea: 846 columna: 7.
       906         102  FMEM                                    ; Archivo: LinkedSearchBinaryTree.txt línea: 847 columna: 1.
       907           1  1                                       ; Archivo: LinkedSearchBinaryTree.txt línea: 847 columna: 6.
       908         125  STOREFP                                 ; Archivo: LinkedSearchBinaryTree.txt línea: 848 columna: 1.
       909         103  RET                                     ; Archivo: LinkedSearchBinaryTree.txt línea: 849 columna: 1.
       910           2  2                                       ; Archivo: LinkedSearchBinaryTree.txt línea: 849 columna: 5.
       911           0  L_ENDELSE_8_find_LinkedSearchBinaryTree: NOP; Archivo: LinkedSearchBinaryTree.txt línea: 850 columna: 42.
       912         102  FMEM                                    ; Archivo: LinkedSearchBinaryTree.txt línea: 851 columna: 1.
       913           1  1                                       ; Archivo: LinkedSearchBinaryTree.txt línea: 851 columna: 6.
       914         125  STOREFP                                 ; Archivo: LinkedSearchBinaryTree.txt línea: 852 columna: 1.
       915         103  RET                                     ; Archivo: LinkedSearchBinaryTree.txt línea: 853 columna: 1.
       916           2  2                                       ; Archivo: LinkedSearchBinaryTree.txt línea: 853 columna: 5.
       917         124  L_MET_LinkedSearchBinaryTree_insert: LOADFP; Archivo: LinkedSearchBinaryTree.txt línea: 856 columna: 38.
       918         122  LOADSP                                  ; Archivo: LinkedSearchBinaryTree.txt línea: 857 columna: 1.
       919         125  STOREFP                                 ; Archivo: LinkedSearchBinaryTree.txt línea: 858 columna: 1.
       920         101  RMEM                                    ; Archivo: LinkedSearchBinaryTree.txt línea: 859 columna: 1.
       921           2  2                                       ; Archivo: LinkedSearchBinaryTree.txt línea: 859 columna: 6.
       922          80  LOAD                                    ; Archivo: LinkedSearchBinaryTree.txt línea: 861 columna: 1.
       923           3  3                                       ; Archivo: LinkedSearchBinaryTree.txt línea: 861 columna: 6.
       924         101  RMEM                                    ; Archivo: LinkedSearchBinaryTree.txt línea: 862 columna: 1.
       925           1  1                                       ; Archivo: LinkedSearchBinaryTree.txt línea: 862 columna: 6.
       926          32  SWAP                                    ; Archivo: LinkedSearchBinaryTree.txt línea: 863 columna: 1.
       927          30  DUP                                     ; Archivo: LinkedSearchBinaryTree.txt línea: 864 columna: 1.
       928          82  LOADREF                                 ; Archivo: LinkedSearchBinaryTree.txt línea: 865 columna: 1.
       929           0  0                                       ; Archivo: LinkedSearchBinaryTree.txt línea: 865 columna: 9.
       930          82  LOADREF                                 ; Archivo: LinkedSearchBinaryTree.txt línea: 866 columna: 1.
       931           2  2                                       ; Archivo: LinkedSearchBinaryTree.txt línea: 866 columna: 9.
       932         100  CALL                                    ; Archivo: LinkedSearchBinaryTree.txt línea: 867 columna: 1.
       933          10  NOT                                     ; Archivo: LinkedSearchBinaryTree.txt línea: 869 columna: 1.
       934          41  BF                                      ; Archivo: LinkedSearchBinaryTree.txt línea: 871 columna: 1.
       935         974  L_ENDIF_9_insert_LinkedSearchBinaryTree ; Archivo: LinkedSearchBinaryTree.txt línea: 871 columna: 4.
       936          80  LOAD                                    ; Archivo: LinkedSearchBinaryTree.txt línea: 873 columna: 1.
       937           3  3                                       ; Archivo: LinkedSearchBinaryTree.txt línea: 873 columna: 6.
       938         101  RMEM                                    ; Archivo: LinkedSearchBinaryTree.txt línea: 874 columna: 1.
       939           1  1                                       ; Archivo: LinkedSearchBinaryTree.txt línea: 874 columna: 6.
       940          32  SWAP                                    ; Archivo: LinkedSearchBinaryTree.txt línea: 875 columna: 1.
       941          80  LOAD                                    ; Archivo: LinkedSearchBinaryTree.txt línea: 877 columna: 1.
       942           5  5                                       ; Archivo: LinkedSearchBinaryTree.txt línea: 877 columna: 6.
       943          32  SWAP                                    ; Archivo: LinkedSearchBinaryTree.txt línea: 878 columna: 1.
       944          80  LOAD                                    ; Archivo: LinkedSearchBinaryTree.txt línea: 880 columna: 1.
       945           4  4                                       ; Archivo: LinkedSearchBinaryTree.txt línea: 880 columna: 6.
       946          32  SWAP                                    ; Archivo: LinkedSearchBinaryTree.txt línea: 881 columna: 1.
       947          80  LOAD                                    ; Archivo: LinkedSearchBinaryTree.txt línea: 883 columna: 1.
       948           3  3                                       ; Archivo: LinkedSearchBinaryTree.txt línea: 883 columna: 6.
       949         101  RMEM                                    ; Archivo: LinkedSearchBinaryTree.txt línea: 884 columna: 1.
       950           1  1                                       ; Archivo: LinkedSearchBinaryTree.txt línea: 884 columna: 6.
       951          32  SWAP                                    ; Archivo: LinkedSearchBinaryTree.txt línea: 885 columna: 1.
       952          30  DUP                                     ; Archivo: LinkedSearchBinaryTree.txt línea: 886 columna: 1.
       953          82  LOADREF                                 ; Archivo: LinkedSearchBinaryTree.txt línea: 887 columna: 1.
       954           0  0                                       ; Archivo: LinkedSearchBinaryTree.txt línea: 887 columna: 9.
       955          82  LOADREF                                 ; Archivo: LinkedSearchBinaryTree.txt línea: 888 columna: 1.
       956           4  4                                       ; Archivo: LinkedSearchBinaryTree.txt línea: 888 columna: 9.
       957         100  CALL                                    ; Archivo: LinkedSearchBinaryTree.txt línea: 889 columna: 1.
       958          32  SWAP                                    ; Archivo: LinkedSearchBinaryTree.txt línea: 890 columna: 1.
       959          30  DUP                                     ; Archivo: LinkedSearchBinaryTree.txt línea: 891 columna: 1.
       960          82  LOADREF                                 ; Archivo: LinkedSearchBinaryTree.txt línea: 892 columna: 1.
       961           0  0                                       ; Archivo: LinkedSearchBinaryTree.txt línea: 892 columna: 9.
       962          82  LOADREF                                 ; Archivo: LinkedSearchBinaryTree.txt línea: 893 columna: 1.
       963          19  19                                      ; Archivo: LinkedSearchBinaryTree.txt línea: 893 columna: 9.
       964         100  CALL                                    ; Archivo: LinkedSearchBinaryTree.txt línea: 894 columna: 1.
       965          81  STORE                                   ; Archivo: LinkedSearchBinaryTree.txt línea: 897 columna: 1.
       966           6  6                                       ; Archivo: LinkedSearchBinaryTree.txt línea: 897 columna: 7.
       967         102  FMEM                                    ; Archivo: LinkedSearchBinaryTree.txt línea: 898 columna: 1.
       968           2  2                                       ; Archivo: LinkedSearchBinaryTree.txt línea: 898 columna: 6.
       969         125  STOREFP                                 ; Archivo: LinkedSearchBinaryTree.txt línea: 899 columna: 1.
       970         103  RET                                     ; Archivo: LinkedSearchBinaryTree.txt línea: 900 columna: 1.
       971           3  3                                       ; Archivo: LinkedSearchBinaryTree.txt línea: 900 columna: 5.
       972          40  JUMP                                    ; Archivo: LinkedSearchBinaryTree.txt línea: 901 columna: 1.
       973        1033  L_ENDELSE_9_insert_LinkedSearchBinaryTree; Archivo: LinkedSearchBinaryTree.txt línea: 901 columna: 6.
       974           0  L_ENDIF_9_insert_LinkedSearchBinaryTree: NOP; Archivo: LinkedSearchBinaryTree.txt línea: 902 columna: 42.
       975          80  LOAD                                    ; Archivo: LinkedSearchBinaryTree.txt línea: 904 columna: 1.
       976           3  3                                       ; Archivo: LinkedSearchBinaryTree.txt línea: 904 columna: 6.
       977         101  RMEM                                    ; Archivo: LinkedSearchBinaryTree.txt línea: 906 columna: 1.
       978           1  1                                       ; Archivo: LinkedSearchBinaryTree.txt línea: 906 columna: 6.
       979           1  PUSH                                    ; Archivo: LinkedSearchBinaryTree.txt línea: 907 columna: 1.
       980           3  3                                       ; Archivo: LinkedSearchBinaryTree.txt línea: 907 columna: 6.
       981           1  PUSH                                    ; Archivo: LinkedSearchBinaryTree.txt línea: 908 columna: 1.
       982         118  L_SIMPLE_MALLOC                         ; Archivo: LinkedSearchBinaryTree.txt línea: 908 columna: 6.
       983         100  CALL                                    ; Archivo: LinkedSearchBinaryTree.txt línea: 909 columna: 1.
       984          30  DUP                                     ; Archivo: LinkedSearchBinaryTree.txt línea: 910 columna: 1.
       985           1  PUSH                                    ; Archivo: LinkedSearchBinaryTree.txt línea: 911 columna: 1.
       986        2842  VT_Entry                                ; Archivo: LinkedSearchBinaryTree.txt línea: 911 columna: 6.
       987          83  STOREREF                                ; Archivo: LinkedSearchBinaryTree.txt línea: 912 columna: 1.
       988           0  0                                       ; Archivo: LinkedSearchBinaryTree.txt línea: 912 columna: 10.
       989          30  DUP                                     ; Archivo: LinkedSearchBinaryTree.txt línea: 913 columna: 1.
       990          80  LOAD                                    ; Archivo: LinkedSearchBinaryTree.txt línea: 915 columna: 1.
       991           5  5                                       ; Archivo: LinkedSearchBinaryTree.txt línea: 915 columna: 6.
       992          32  SWAP                                    ; Archivo: LinkedSearchBinaryTree.txt línea: 917 columna: 1.
       993          80  LOAD                                    ; Archivo: LinkedSearchBinaryTree.txt línea: 919 columna: 1.
       994           4  4                                       ; Archivo: LinkedSearchBinaryTree.txt línea: 919 columna: 6.
       995          32  SWAP                                    ; Archivo: LinkedSearchBinaryTree.txt línea: 921 columna: 1.
       996           1  PUSH                                    ; Archivo: LinkedSearchBinaryTree.txt línea: 923 columna: 1.
       997        2027  L_CTOR_Entry_Entry                      ; Archivo: LinkedSearchBinaryTree.txt línea: 923 columna: 6.
       998         100  CALL                                    ; Archivo: LinkedSearchBinaryTree.txt línea: 924 columna: 1.
       999          32  SWAP                                    ; Archivo: LinkedSearchBinaryTree.txt línea: 925 columna: 1.
      1000          30  DUP                                     ; Archivo: LinkedSearchBinaryTree.txt línea: 926 columna: 1.
      1001          82  LOADREF                                 ; Archivo: LinkedSearchBinaryTree.txt línea: 927 columna: 1.
      1002           0  0                                       ; Archivo: LinkedSearchBinaryTree.txt línea: 927 columna: 9.
      1003          82  LOADREF                                 ; Archivo: LinkedSearchBinaryTree.txt línea: 928 columna: 1.
      1004           9  9                                       ; Archivo: LinkedSearchBinaryTree.txt línea: 928 columna: 9.
      1005         100  CALL                                    ; Archivo: LinkedSearchBinaryTree.txt línea: 929 columna: 1.
      1006          80  LOAD                                    ; Archivo: LinkedSearchBinaryTree.txt línea: 931 columna: 1.
      1007           3  3                                       ; Archivo: LinkedSearchBinaryTree.txt línea: 931 columna: 6.
      1008         101  RMEM                                    ; Archivo: LinkedSearchBinaryTree.txt línea: 932 columna: 1.
      1009           1  1                                       ; Archivo: LinkedSearchBinaryTree.txt línea: 932 columna: 6.
      1010          32  SWAP                                    ; Archivo: LinkedSearchBinaryTree.txt línea: 933 columna: 1.
      1011          30  DUP                                     ; Archivo: LinkedSearchBinaryTree.txt línea: 934 columna: 1.
      1012          82  LOADREF                                 ; Archivo: LinkedSearchBinaryTree.txt línea: 935 columna: 1.
      1013           0  0                                       ; Archivo: LinkedSearchBinaryTree.txt línea: 935 columna: 9.
      1014          82  LOADREF                                 ; Archivo: LinkedSearchBinaryTree.txt línea: 936 columna: 1.
      1015           4  4                                       ; Archivo: LinkedSearchBinaryTree.txt línea: 936 columna: 9.
      1016         100  CALL                                    ; Archivo: LinkedSearchBinaryTree.txt línea: 937 columna: 1.
      1017         101  RMEM                                    ; Archivo: LinkedSearchBinaryTree.txt línea: 939 columna: 1.
      1018           1  1                                       ; Archivo: LinkedSearchBinaryTree.txt línea: 939 columna: 6.
      1019          32  SWAP                                    ; Archivo: LinkedSearchBinaryTree.txt línea: 940 columna: 1.
      1020          30  DUP                                     ; Archivo: LinkedSearchBinaryTree.txt línea: 942 columna: 1.
      1021          82  LOADREF                                 ; Archivo: LinkedSearchBinaryTree.txt línea: 943 columna: 1.
      1022           0  0                                       ; Archivo: LinkedSearchBinaryTree.txt línea: 943 columna: 9.
      1023          82  LOADREF                                 ; Archivo: LinkedSearchBinaryTree.txt línea: 944 columna: 1.
      1024           5  5                                       ; Archivo: LinkedSearchBinaryTree.txt línea: 944 columna: 9.
      1025         100  CALL                                    ; Archivo: LinkedSearchBinaryTree.txt línea: 945 columna: 1.
      1026          81  STORE                                   ; Archivo: LinkedSearchBinaryTree.txt línea: 948 columna: 1.
      1027           6  6                                       ; Archivo: LinkedSearchBinaryTree.txt línea: 948 columna: 7.
      1028         102  FMEM                                    ; Archivo: LinkedSearchBinaryTree.txt línea: 949 columna: 1.
      1029           2  2                                       ; Archivo: LinkedSearchBinaryTree.txt línea: 949 columna: 6.
      1030         125  STOREFP                                 ; Archivo: LinkedSearchBinaryTree.txt línea: 950 columna: 1.
      1031         103  RET                                     ; Archivo: LinkedSearchBinaryTree.txt línea: 951 columna: 1.
      1032           3  3                                       ; Archivo: LinkedSearchBinaryTree.txt línea: 951 columna: 5.
      1033           0  L_ENDELSE_9_insert_LinkedSearchBinaryTree: NOP; Archivo: LinkedSearchBinaryTree.txt línea: 952 columna: 44.
      1034         102  FMEM                                    ; Archivo: LinkedSearchBinaryTree.txt línea: 953 columna: 1.
      1035           2  2                                       ; Archivo: LinkedSearchBinaryTree.txt línea: 953 columna: 6.
      1036         125  STOREFP                                 ; Archivo: LinkedSearchBinaryTree.txt línea: 954 columna: 1.
      1037         103  RET                                     ; Archivo: LinkedSearchBinaryTree.txt línea: 955 columna: 1.
      1038           3  3                                       ; Archivo: LinkedSearchBinaryTree.txt línea: 955 columna: 5.
      1039         124  L_MET_LinkedSearchBinaryTree_remove: LOADFP; Archivo: LinkedSearchBinaryTree.txt línea: 958 columna: 38.
      1040         122  LOADSP                                  ; Archivo: LinkedSearchBinaryTree.txt línea: 959 columna: 1.
      1041         125  STOREFP                                 ; Archivo: LinkedSearchBinaryTree.txt línea: 960 columna: 1.
      1042         101  RMEM                                    ; Archivo: LinkedSearchBinaryTree.txt línea: 961 columna: 1.
      1043           2  2                                       ; Archivo: LinkedSearchBinaryTree.txt línea: 961 columna: 6.
      1044          80  LOAD                                    ; Archivo: LinkedSearchBinaryTree.txt línea: 963 columna: 1.
      1045           3  3                                       ; Archivo: LinkedSearchBinaryTree.txt línea: 963 columna: 6.
      1046         101  RMEM                                    ; Archivo: LinkedSearchBinaryTree.txt línea: 964 columna: 1.
      1047           1  1                                       ; Archivo: LinkedSearchBinaryTree.txt línea: 964 columna: 6.
      1048          32  SWAP                                    ; Archivo: LinkedSearchBinaryTree.txt línea: 965 columna: 1.
      1049          30  DUP                                     ; Archivo: LinkedSearchBinaryTree.txt línea: 966 columna: 1.
      1050          82  LOADREF                                 ; Archivo: LinkedSearchBinaryTree.txt línea: 967 columna: 1.
      1051           0  0                                       ; Archivo: LinkedSearchBinaryTree.txt línea: 967 columna: 9.
      1052          82  LOADREF                                 ; Archivo: LinkedSearchBinaryTree.txt línea: 968 columna: 1.
      1053           2  2                                       ; Archivo: LinkedSearchBinaryTree.txt línea: 968 columna: 9.
      1054         100  CALL                                    ; Archivo: LinkedSearchBinaryTree.txt línea: 969 columna: 1.
      1055          41  BF                                      ; Archivo: LinkedSearchBinaryTree.txt línea: 971 columna: 1.
      1056        1066  L_ENDIFTHEN_10_remove_LinkedSearchBinaryTree; Archivo: LinkedSearchBinaryTree.txt línea: 971 columna: 4.
      1057           1  PUSH                                    ; Archivo: LinkedSearchBinaryTree.txt línea: 973 columna: 1.
      1058           0  0                                       ; Archivo: LinkedSearchBinaryTree.txt línea: 973 columna: 6.
      1059          81  STORE                                   ; Archivo: LinkedSearchBinaryTree.txt línea: 976 columna: 1.
      1060           5  5                                       ; Archivo: LinkedSearchBinaryTree.txt línea: 976 columna: 7.
      1061         102  FMEM                                    ; Archivo: LinkedSearchBinaryTree.txt línea: 977 columna: 1.
      1062           2  2                                       ; Archivo: LinkedSearchBinaryTree.txt línea: 977 columna: 6.
      1063         125  STOREFP                                 ; Archivo: LinkedSearchBinaryTree.txt línea: 978 columna: 1.
      1064         103  RET                                     ; Archivo: LinkedSearchBinaryTree.txt línea: 979 columna: 1.
      1065           2  2                                       ; Archivo: LinkedSearchBinaryTree.txt línea: 979 columna: 5.
      1066           0  L_ENDIFTHEN_10_remove_LinkedSearchBinaryTree: NOP; Archivo: LinkedSearchBinaryTree.txt línea: 980 columna: 47.
      1067          80  LOAD                                    ; Archivo: LinkedSearchBinaryTree.txt línea: 982 columna: 1.
      1068           3  3                                       ; Archivo: LinkedSearchBinaryTree.txt línea: 982 columna: 6.
      1069         101  RMEM                                    ; Archivo: LinkedSearchBinaryTree.txt línea: 983 columna: 1.
      1070           1  1                                       ; Archivo: LinkedSearchBinaryTree.txt línea: 983 columna: 6.
      1071          32  SWAP                                    ; Archivo: LinkedSearchBinaryTree.txt línea: 984 columna: 1.
      1072          80  LOAD                                    ; Archivo: LinkedSearchBinaryTree.txt línea: 986 columna: 1.
      1073           4  4                                       ; Archivo: LinkedSearchBinaryTree.txt línea: 986 columna: 6.
      1074          32  SWAP                                    ; Archivo: LinkedSearchBinaryTree.txt línea: 987 columna: 1.
      1075          80  LOAD                                    ; Archivo: LinkedSearchBinaryTree.txt línea: 989 columna: 1.
      1076           3  3                                       ; Archivo: LinkedSearchBinaryTree.txt línea: 989 columna: 6.
      1077         101  RMEM                                    ; Archivo: LinkedSearchBinaryTree.txt línea: 990 columna: 1.
      1078           1  1                                       ; Archivo: LinkedSearchBinaryTree.txt línea: 990 columna: 6.
      1079          32  SWAP                                    ; Archivo: LinkedSearchBinaryTree.txt línea: 991 columna: 1.
      1080          30  DUP                                     ; Archivo: LinkedSearchBinaryTree.txt línea: 992 columna: 1.
      1081          82  LOADREF                                 ; Archivo: LinkedSearchBinaryTree.txt línea: 993 columna: 1.
      1082           0  0                                       ; Archivo: LinkedSearchBinaryTree.txt línea: 993 columna: 9.
      1083          82  LOADREF                                 ; Archivo: LinkedSearchBinaryTree.txt línea: 994 columna: 1.
      1084           4  4                                       ; Archivo: LinkedSearchBinaryTree.txt línea: 994 columna: 9.
      1085         100  CALL                                    ; Archivo: LinkedSearchBinaryTree.txt línea: 995 columna: 1.
      1086          32  SWAP                                    ; Archivo: LinkedSearchBinaryTree.txt línea: 996 columna: 1.
      1087          30  DUP                                     ; Archivo: LinkedSearchBinaryTree.txt línea: 997 columna: 1.
      1088          82  LOADREF                                 ; Archivo: LinkedSearchBinaryTree.txt línea: 998 columna: 1.
      1089           0  0                                       ; Archivo: LinkedSearchBinaryTree.txt línea: 998 columna: 9.
      1090          82  LOADREF                                 ; Archivo: LinkedSearchBinaryTree.txt línea: 999 columna: 1.
      1091          18  18                                      ; Archivo: LinkedSearchBinaryTree.txt línea: 999 columna: 9.
      1092         100  CALL                                    ; Archivo: LinkedSearchBinaryTree.txt línea: 1000 columna: 1.
      1093          81  STORE                                   ; Archivo: LinkedSearchBinaryTree.txt línea: 1002 columna: 1.
      1094           0  0                                       ; Archivo: LinkedSearchBinaryTree.txt línea: 1002 columna: 7.
      1095          80  LOAD                                    ; Archivo: LinkedSearchBinaryTree.txt línea: 1004 columna: 1.
      1096           3  3                                       ; Archivo: LinkedSearchBinaryTree.txt línea: 1004 columna: 6.
      1097         101  RMEM                                    ; Archivo: LinkedSearchBinaryTree.txt línea: 1005 columna: 1.
      1098           1  1                                       ; Archivo: LinkedSearchBinaryTree.txt línea: 1005 columna: 6.
      1099          32  SWAP                                    ; Archivo: LinkedSearchBinaryTree.txt línea: 1006 columna: 1.
      1100          80  LOAD                                    ; Archivo: LinkedSearchBinaryTree.txt línea: 1008 columna: 1.
      1101           0  0                                       ; Archivo: LinkedSearchBinaryTree.txt línea: 1008 columna: 6.
      1102          32  SWAP                                    ; Archivo: LinkedSearchBinaryTree.txt línea: 1009 columna: 1.
      1103          30  DUP                                     ; Archivo: LinkedSearchBinaryTree.txt línea: 1010 columna: 1.
      1104          82  LOADREF                                 ; Archivo: LinkedSearchBinaryTree.txt línea: 1011 columna: 1.
      1105           0  0                                       ; Archivo: LinkedSearchBinaryTree.txt línea: 1011 columna: 9.
      1106          82  LOADREF                                 ; Archivo: LinkedSearchBinaryTree.txt línea: 1012 columna: 1.
      1107           7  7                                       ; Archivo: LinkedSearchBinaryTree.txt línea: 1012 columna: 9.
      1108         100  CALL                                    ; Archivo: LinkedSearchBinaryTree.txt línea: 1013 columna: 1.
      1109          10  NOT                                     ; Archivo: LinkedSearchBinaryTree.txt línea: 1015 columna: 1.
      1110          41  BF                                      ; Archivo: LinkedSearchBinaryTree.txt línea: 1017 columna: 1.
      1111        1256  L_ENDIFTHEN_11_remove_LinkedSearchBinaryTree; Archivo: LinkedSearchBinaryTree.txt línea: 1017 columna: 4.
      1112          80  LOAD                                    ; Archivo: LinkedSearchBinaryTree.txt línea: 1019 columna: 1.
      1113           3  3                                       ; Archivo: LinkedSearchBinaryTree.txt línea: 1019 columna: 6.
      1114         101  RMEM                                    ; Archivo: LinkedSearchBinaryTree.txt línea: 1020 columna: 1.
      1115           1  1                                       ; Archivo: LinkedSearchBinaryTree.txt línea: 1020 columna: 6.
      1116          32  SWAP                                    ; Archivo: LinkedSearchBinaryTree.txt línea: 1021 columna: 1.
      1117          80  LOAD                                    ; Archivo: LinkedSearchBinaryTree.txt línea: 1023 columna: 1.
      1118           3  3                                       ; Archivo: LinkedSearchBinaryTree.txt línea: 1023 columna: 6.
      1119         101  RMEM                                    ; Archivo: LinkedSearchBinaryTree.txt línea: 1024 columna: 1.
      1120           1  1                                       ; Archivo: LinkedSearchBinaryTree.txt línea: 1024 columna: 6.
      1121          32  SWAP                                    ; Archivo: LinkedSearchBinaryTree.txt línea: 1025 columna: 1.
      1122          80  LOAD                                    ; Archivo: LinkedSearchBinaryTree.txt línea: 1027 columna: 1.
      1123           0  0                                       ; Archivo: LinkedSearchBinaryTree.txt línea: 1027 columna: 6.
      1124          32  SWAP                                    ; Archivo: LinkedSearchBinaryTree.txt línea: 1028 columna: 1.
      1125          30  DUP                                     ; Archivo: LinkedSearchBinaryTree.txt línea: 1029 columna: 1.
      1126          82  LOADREF                                 ; Archivo: LinkedSearchBinaryTree.txt línea: 1030 columna: 1.
      1127           0  0                                       ; Archivo: LinkedSearchBinaryTree.txt línea: 1030 columna: 9.
      1128          82  LOADREF                                 ; Archivo: LinkedSearchBinaryTree.txt línea: 1031 columna: 1.
      1129          12  12                                      ; Archivo: LinkedSearchBinaryTree.txt línea: 1031 columna: 9.
      1130         100  CALL                                    ; Archivo: LinkedSearchBinaryTree.txt línea: 1032 columna: 1.
      1131          32  SWAP                                    ; Archivo: LinkedSearchBinaryTree.txt línea: 1033 columna: 1.
      1132          30  DUP                                     ; Archivo: LinkedSearchBinaryTree.txt línea: 1034 columna: 1.
      1133          82  LOADREF                                 ; Archivo: LinkedSearchBinaryTree.txt línea: 1035 columna: 1.
      1134           0  0                                       ; Archivo: LinkedSearchBinaryTree.txt línea: 1035 columna: 9.
      1135          82  LOADREF                                 ; Archivo: LinkedSearchBinaryTree.txt línea: 1036 columna: 1.
      1136           7  7                                       ; Archivo: LinkedSearchBinaryTree.txt línea: 1036 columna: 9.
      1137         100  CALL                                    ; Archivo: LinkedSearchBinaryTree.txt línea: 1037 columna: 1.
      1138          41  BF                                      ; Archivo: LinkedSearchBinaryTree.txt línea: 1039 columna: 1.
      1139        1165  L_ENDIF_12_remove_LinkedSearchBinaryTree; Archivo: LinkedSearchBinaryTree.txt línea: 1039 columna: 4.
      1140          80  LOAD                                    ; Archivo: LinkedSearchBinaryTree.txt línea: 1041 columna: 1.
      1141           3  3                                       ; Archivo: LinkedSearchBinaryTree.txt línea: 1041 columna: 6.
      1142          80  LOAD                                    ; Archivo: LinkedSearchBinaryTree.txt línea: 1043 columna: 1.
      1143           3  3                                       ; Archivo: LinkedSearchBinaryTree.txt línea: 1043 columna: 6.
      1144         101  RMEM                                    ; Archivo: LinkedSearchBinaryTree.txt línea: 1044 columna: 1.
      1145           1  1                                       ; Archivo: LinkedSearchBinaryTree.txt línea: 1044 columna: 6.
      1146          32  SWAP                                    ; Archivo: LinkedSearchBinaryTree.txt línea: 1045 columna: 1.
      1147          80  LOAD                                    ; Archivo: LinkedSearchBinaryTree.txt línea: 1047 columna: 1.
      1148           0  0                                       ; Archivo: LinkedSearchBinaryTree.txt línea: 1047 columna: 6.
      1149          32  SWAP                                    ; Archivo: LinkedSearchBinaryTree.txt línea: 1048 columna: 1.
      1150          30  DUP                                     ; Archivo: LinkedSearchBinaryTree.txt línea: 1049 columna: 1.
      1151          82  LOADREF                                 ; Archivo: LinkedSearchBinaryTree.txt línea: 1050 columna: 1.
      1152           0  0                                       ; Archivo: LinkedSearchBinaryTree.txt línea: 1050 columna: 9.
      1153          82  LOADREF                                 ; Archivo: LinkedSearchBinaryTree.txt línea: 1051 columna: 1.
      1154          12  12                                      ; Archivo: LinkedSearchBinaryTree.txt línea: 1051 columna: 9.
      1155         100  CALL                                    ; Archivo: LinkedSearchBinaryTree.txt línea: 1052 columna: 1.
      1156          32  SWAP                                    ; Archivo: LinkedSearchBinaryTree.txt línea: 1053 columna: 1.
      1157          30  DUP                                     ; Archivo: LinkedSearchBinaryTree.txt línea: 1054 columna: 1.
      1158          82  LOADREF                                 ; Archivo: LinkedSearchBinaryTree.txt línea: 1055 columna: 1.
      1159           0  0                                       ; Archivo: LinkedSearchBinaryTree.txt línea: 1055 columna: 9.
      1160          82  LOADREF                                 ; Archivo: LinkedSearchBinaryTree.txt línea: 1056 columna: 1.
      1161          21  21                                      ; Archivo: LinkedSearchBinaryTree.txt línea: 1056 columna: 9.
      1162         100  CALL                                    ; Archivo: LinkedSearchBinaryTree.txt línea: 1057 columna: 1.
      1163          40  JUMP                                    ; Archivo: LinkedSearchBinaryTree.txt línea: 1058 columna: 1.
      1164        1255  L_ENDELSE_12_remove_LinkedSearchBinaryTree; Archivo: LinkedSearchBinaryTree.txt línea: 1058 columna: 6.
      1165           0  L_ENDIF_12_remove_LinkedSearchBinaryTree: NOP; Archivo: LinkedSearchBinaryTree.txt línea: 1059 columna: 43.
      1166          80  LOAD                                    ; Archivo: LinkedSearchBinaryTree.txt línea: 1061 columna: 1.
      1167           3  3                                       ; Archivo: LinkedSearchBinaryTree.txt línea: 1061 columna: 6.
      1168         101  RMEM                                    ; Archivo: LinkedSearchBinaryTree.txt línea: 1062 columna: 1.
      1169           1  1                                       ; Archivo: LinkedSearchBinaryTree.txt línea: 1062 columna: 6.
      1170          32  SWAP                                    ; Archivo: LinkedSearchBinaryTree.txt línea: 1063 columna: 1.
      1171          80  LOAD                                    ; Archivo: LinkedSearchBinaryTree.txt línea: 1065 columna: 1.
      1172           3  3                                       ; Archivo: LinkedSearchBinaryTree.txt línea: 1065 columna: 6.
      1173         101  RMEM                                    ; Archivo: LinkedSearchBinaryTree.txt línea: 1066 columna: 1.
      1174           1  1                                       ; Archivo: LinkedSearchBinaryTree.txt línea: 1066 columna: 6.
      1175          32  SWAP                                    ; Archivo: LinkedSearchBinaryTree.txt línea: 1067 columna: 1.
      1176          80  LOAD                                    ; Archivo: LinkedSearchBinaryTree.txt línea: 1069 columna: 1.
      1177           0  0                                       ; Archivo: LinkedSearchBinaryTree.txt línea: 1069 columna: 6.
      1178          32  SWAP                                    ; Archivo: LinkedSearchBinaryTree.txt línea: 1070 columna: 1.
      1179          30  DUP                                     ; Archivo: LinkedSearchBinaryTree.txt línea: 1071 columna: 1.
      1180          82  LOADREF                                 ; Archivo: LinkedSearchBinaryTree.txt línea: 1072 columna: 1.
      1181           0  0                                       ; Archivo: LinkedSearchBinaryTree.txt línea: 1072 columna: 9.
      1182          82  LOADREF                                 ; Archivo: LinkedSearchBinaryTree.txt línea: 1073 columna: 1.
      1183          13  13                                      ; Archivo: LinkedSearchBinaryTree.txt línea: 1073 columna: 9.
      1184         100  CALL                                    ; Archivo: LinkedSearchBinaryTree.txt línea: 1074 columna: 1.
      1185          32  SWAP                                    ; Archivo: LinkedSearchBinaryTree.txt línea: 1075 columna: 1.
      1186          30  DUP                                     ; Archivo: LinkedSearchBinaryTree.txt línea: 1076 columna: 1.
      1187          82  LOADREF                                 ; Archivo: LinkedSearchBinaryTree.txt línea: 1077 columna: 1.
      1188           0  0                                       ; Archivo: LinkedSearchBinaryTree.txt línea: 1077 columna: 9.
      1189          82  LOADREF                                 ; Archivo: LinkedSearchBinaryTree.txt línea: 1078 columna: 1.
      1190           7  7                                       ; Archivo: LinkedSearchBinaryTree.txt línea: 1078 columna: 9.
      1191         100  CALL                                    ; Archivo: LinkedSearchBinaryTree.txt línea: 1079 columna: 1.
      1192          41  BF                                      ; Archivo: LinkedSearchBinaryTree.txt línea: 1081 columna: 1.
      1193        1219  L_ENDIF_13_remove_LinkedSearchBinaryTree; Archivo: LinkedSearchBinaryTree.txt línea: 1081 columna: 4.
      1194          80  LOAD                                    ; Archivo: LinkedSearchBinaryTree.txt línea: 1083 columna: 1.
      1195           3  3                                       ; Archivo: LinkedSearchBinaryTree.txt línea: 1083 columna: 6.
      1196          80  LOAD                                    ; Archivo: LinkedSearchBinaryTree.txt línea: 1085 columna: 1.
      1197           3  3                                       ; Archivo: LinkedSearchBinaryTree.txt línea: 1085 columna: 6.
      1198         101  RMEM                                    ; Archivo: LinkedSearchBinaryTree.txt línea: 1086 columna: 1.
      1199           1  1                                       ; Archivo: LinkedSearchBinaryTree.txt línea: 1086 columna: 6.
      1200          32  SWAP                                    ; Archivo: LinkedSearchBinaryTree.txt línea: 1087 columna: 1.
      1201          80  LOAD                                    ; Archivo: LinkedSearchBinaryTree.txt línea: 1089 columna: 1.
      1202           0  0                                       ; Archivo: LinkedSearchBinaryTree.txt línea: 1089 columna: 6.
      1203          32  SWAP                                    ; Archivo: LinkedSearchBinaryTree.txt línea: 1090 columna: 1.
      1204          30  DUP                                     ; Archivo: LinkedSearchBinaryTree.txt línea: 1091 columna: 1.
      1205          82  LOADREF                                 ; Archivo: LinkedSearchBinaryTree.txt línea: 1092 columna: 1.
      1206           0  0                                       ; Archivo: LinkedSearchBinaryTree.txt línea: 1092 columna: 9.
      1207          82  LOADREF                                 ; Archivo: LinkedSearchBinaryTree.txt línea: 1093 columna: 1.
      1208          13  13                                      ; Archivo: LinkedSearchBinaryTree.txt línea: 1093 columna: 9.
      1209         100  CALL                                    ; Archivo: LinkedSearchBinaryTree.txt línea: 1094 columna: 1.
      1210          32  SWAP                                    ; Archivo: LinkedSearchBinaryTree.txt línea: 1095 columna: 1.
      1211          30  DUP                                     ; Archivo: LinkedSearchBinaryTree.txt línea: 1096 columna: 1.
      1212          82  LOADREF                                 ; Archivo: LinkedSearchBinaryTree.txt línea: 1097 columna: 1.
      1213           0  0                                       ; Archivo: LinkedSearchBinaryTree.txt línea: 1097 columna: 9.
      1214          82  LOADREF                                 ; Archivo: LinkedSearchBinaryTree.txt línea: 1098 columna: 1.
      1215          21  21                                      ; Archivo: LinkedSearchBinaryTree.txt línea: 1098 columna: 9.
      1216         100  CALL                                    ; Archivo: LinkedSearchBinaryTree.txt línea: 1099 columna: 1.
      1217          40  JUMP                                    ; Archivo: LinkedSearchBinaryTree.txt línea: 1100 columna: 1.
      1218        1254  L_ENDELSE_13_remove_LinkedSearchBinaryTree; Archivo: LinkedSearchBinaryTree.txt línea: 1100 columna: 6.
      1219           0  L_ENDIF_13_remove_LinkedSearchBinaryTree: NOP; Archivo: LinkedSearchBinaryTree.txt línea: 1101 columna: 43.
      1220          80  LOAD                                    ; Archivo: LinkedSearchBinaryTree.txt línea: 1103 columna: 1.
      1221           3  3                                       ; Archivo: LinkedSearchBinaryTree.txt línea: 1103 columna: 6.
      1222         101  RMEM                                    ; Archivo: LinkedSearchBinaryTree.txt línea: 1104 columna: 1.
      1223           1  1                                       ; Archivo: LinkedSearchBinaryTree.txt línea: 1104 columna: 6.
      1224          32  SWAP                                    ; Archivo: LinkedSearchBinaryTree.txt línea: 1105 columna: 1.
      1225          80  LOAD                                    ; Archivo: LinkedSearchBinaryTree.txt línea: 1107 columna: 1.
      1226           0  0                                       ; Archivo: LinkedSearchBinaryTree.txt línea: 1107 columna: 6.
      1227          32  SWAP                                    ; Archivo: LinkedSearchBinaryTree.txt línea: 1108 columna: 1.
      1228          30  DUP                                     ; Archivo: LinkedSearchBinaryTree.txt línea: 1109 columna: 1.
      1229          82  LOADREF                                 ; Archivo: LinkedSearchBinaryTree.txt línea: 1110 columna: 1.
      1230           0  0                                       ; Archivo: LinkedSearchBinaryTree.txt línea: 1110 columna: 9.
      1231          82  LOADREF                                 ; Archivo: LinkedSearchBinaryTree.txt línea: 1111 columna: 1.
      1232          22  22                                      ; Archivo: LinkedSearchBinaryTree.txt línea: 1111 columna: 9.
      1233         100  CALL                                    ; Archivo: LinkedSearchBinaryTree.txt línea: 1112 columna: 1.
      1234          81  STORE                                   ; Archivo: LinkedSearchBinaryTree.txt línea: 1114 columna: 1.
      1235          -1  -1                                      ; Archivo: LinkedSearchBinaryTree.txt línea: 1114 columna: 7.
      1236          80  LOAD                                    ; Archivo: LinkedSearchBinaryTree.txt línea: 1116 columna: 1.
      1237           3  3                                       ; Archivo: LinkedSearchBinaryTree.txt línea: 1116 columna: 6.
      1238         101  RMEM                                    ; Archivo: LinkedSearchBinaryTree.txt línea: 1117 columna: 1.
      1239           1  1                                       ; Archivo: LinkedSearchBinaryTree.txt línea: 1117 columna: 6.
      1240          32  SWAP                                    ; Archivo: LinkedSearchBinaryTree.txt línea: 1118 columna: 1.
      1241          80  LOAD                                    ; Archivo: LinkedSearchBinaryTree.txt línea: 1120 columna: 1.
      1242           0  0                                       ; Archivo: LinkedSearchBinaryTree.txt línea: 1120 columna: 6.
      1243          32  SWAP                                    ; Archivo: LinkedSearchBinaryTree.txt línea: 1121 columna: 1.
      1244          80  LOAD                                    ; Archivo: LinkedSearchBinaryTree.txt línea: 1123 columna: 1.
      1245          -1  -1                                      ; Archivo: LinkedSearchBinaryTree.txt línea: 1123 columna: 6.
      1246          32  SWAP                                    ; Archivo: LinkedSearchBinaryTree.txt línea: 1124 columna: 1.
      1247          30  DUP                                     ; Archivo: LinkedSearchBinaryTree.txt línea: 1125 columna: 1.
      1248          82  LOADREF                                 ; Archivo: LinkedSearchBinaryTree.txt línea: 1126 columna: 1.
      1249           0  0                                       ; Archivo: LinkedSearchBinaryTree.txt línea: 1126 columna: 9.
      1250          82  LOADREF                                 ; Archivo: LinkedSearchBinaryTree.txt línea: 1127 columna: 1.
      1251           3  3                                       ; Archivo: LinkedSearchBinaryTree.txt línea: 1127 columna: 9.
      1252         100  CALL                                    ; Archivo: LinkedSearchBinaryTree.txt línea: 1128 columna: 1.
      1253          31  POP                                     ; Archivo: LinkedSearchBinaryTree.txt línea: 1129 columna: 1.
      1254           0  L_ENDELSE_13_remove_LinkedSearchBinaryTree: NOP; Archivo: LinkedSearchBinaryTree.txt línea: 1130 columna: 45.
      1255           0  L_ENDELSE_12_remove_LinkedSearchBinaryTree: NOP; Archivo: LinkedSearchBinaryTree.txt línea: 1131 columna: 45.
      1256           0  L_ENDIFTHEN_11_remove_LinkedSearchBinaryTree: NOP; Archivo: LinkedSearchBinaryTree.txt línea: 1132 columna: 47.
      1257          80  LOAD                                    ; Archivo: LinkedSearchBinaryTree.txt línea: 1134 columna: 1.
      1258           0  0                                       ; Archivo: LinkedSearchBinaryTree.txt línea: 1134 columna: 6.
      1259         101  RMEM                                    ; Archivo: LinkedSearchBinaryTree.txt línea: 1136 columna: 1.
      1260           1  1                                       ; Archivo: LinkedSearchBinaryTree.txt línea: 1136 columna: 6.
      1261          32  SWAP                                    ; Archivo: LinkedSearchBinaryTree.txt línea: 1137 columna: 1.
      1262          30  DUP                                     ; Archivo: LinkedSearchBinaryTree.txt línea: 1139 columna: 1.
      1263          82  LOADREF                                 ; Archivo: LinkedSearchBinaryTree.txt línea: 1140 columna: 1.
      1264           0  0                                       ; Archivo: LinkedSearchBinaryTree.txt línea: 1140 columna: 9.
      1265          82  LOADREF                                 ; Archivo: LinkedSearchBinaryTree.txt línea: 1141 columna: 1.
      1266           5  5                                       ; Archivo: LinkedSearchBinaryTree.txt línea: 1141 columna: 9.
      1267         100  CALL                                    ; Archivo: LinkedSearchBinaryTree.txt línea: 1142 columna: 1.
      1268          81  STORE                                   ; Archivo: LinkedSearchBinaryTree.txt línea: 1145 columna: 1.
      1269           5  5                                       ; Archivo: LinkedSearchBinaryTree.txt línea: 1145 columna: 7.
      1270         102  FMEM                                    ; Archivo: LinkedSearchBinaryTree.txt línea: 1146 columna: 1.
      1271           2  2                                       ; Archivo: LinkedSearchBinaryTree.txt línea: 1146 columna: 6.
      1272         125  STOREFP                                 ; Archivo: LinkedSearchBinaryTree.txt línea: 1147 columna: 1.
      1273         103  RET                                     ; Archivo: LinkedSearchBinaryTree.txt línea: 1148 columna: 1.
      1274           2  2                                       ; Archivo: LinkedSearchBinaryTree.txt línea: 1148 columna: 5.
      1275         102  FMEM                                    ; Archivo: LinkedSearchBinaryTree.txt línea: 1149 columna: 1.
      1276           2  2                                       ; Archivo: LinkedSearchBinaryTree.txt línea: 1149 columna: 6.
      1277         125  STOREFP                                 ; Archivo: LinkedSearchBinaryTree.txt línea: 1150 columna: 1.
      1278         103  RET                                     ; Archivo: LinkedSearchBinaryTree.txt línea: 1151 columna: 1.
      1279           2  2                                       ; Archivo: LinkedSearchBinaryTree.txt línea: 1151 columna: 5.
      1280         124  L_MET_LinkedSearchBinaryTree_treeSearch: LOADFP; Archivo: LinkedSearchBinaryTree.txt línea: 1154 columna: 42.
      1281         122  LOADSP                                  ; Archivo: LinkedSearchBinaryTree.txt línea: 1155 columna: 1.
      1282         125  STOREFP                                 ; Archivo: LinkedSearchBinaryTree.txt línea: 1156 columna: 1.
      1283          80  LOAD                                    ; Archivo: LinkedSearchBinaryTree.txt línea: 1158 columna: 1.
      1284           3  3                                       ; Archivo: LinkedSearchBinaryTree.txt línea: 1158 columna: 6.
      1285         101  RMEM                                    ; Archivo: LinkedSearchBinaryTree.txt línea: 1159 columna: 1.
      1286           1  1                                       ; Archivo: LinkedSearchBinaryTree.txt línea: 1159 columna: 6.
      1287          32  SWAP                                    ; Archivo: LinkedSearchBinaryTree.txt línea: 1160 columna: 1.
      1288          80  LOAD                                    ; Archivo: LinkedSearchBinaryTree.txt línea: 1162 columna: 1.
      1289           4  4                                       ; Archivo: LinkedSearchBinaryTree.txt línea: 1162 columna: 6.
      1290          32  SWAP                                    ; Archivo: LinkedSearchBinaryTree.txt línea: 1163 columna: 1.
      1291          30  DUP                                     ; Archivo: LinkedSearchBinaryTree.txt línea: 1164 columna: 1.
      1292          82  LOADREF                                 ; Archivo: LinkedSearchBinaryTree.txt línea: 1165 columna: 1.
      1293           0  0                                       ; Archivo: LinkedSearchBinaryTree.txt línea: 1165 columna: 9.
      1294          82  LOADREF                                 ; Archivo: LinkedSearchBinaryTree.txt línea: 1166 columna: 1.
      1295           7  7                                       ; Archivo: LinkedSearchBinaryTree.txt línea: 1166 columna: 9.
      1296         100  CALL                                    ; Archivo: LinkedSearchBinaryTree.txt línea: 1167 columna: 1.
      1297          41  BF                                      ; Archivo: LinkedSearchBinaryTree.txt línea: 1169 columna: 1.
      1298        1306  L_ENDIFTHEN_14_treeSearch_LinkedSearchBinaryTree; Archivo: LinkedSearchBinaryTree.txt línea: 1169 columna: 4.
      1299          80  LOAD                                    ; Archivo: LinkedSearchBinaryTree.txt línea: 1171 columna: 1.
      1300           4  4                                       ; Archivo: LinkedSearchBinaryTree.txt línea: 1171 columna: 6.
      1301          81  STORE                                   ; Archivo: LinkedSearchBinaryTree.txt línea: 1174 columna: 1.
      1302           6  6                                       ; Archivo: LinkedSearchBinaryTree.txt línea: 1174 columna: 7.
      1303         125  STOREFP                                 ; Archivo: LinkedSearchBinaryTree.txt línea: 1175 columna: 1.
      1304         103  RET                                     ; Archivo: LinkedSearchBinaryTree.txt línea: 1176 columna: 1.
      1305           3  3                                       ; Archivo: LinkedSearchBinaryTree.txt línea: 1176 columna: 5.
      1306           0  L_ENDIFTHEN_14_treeSearch_LinkedSearchBinaryTree: NOP; Archivo: LinkedSearchBinaryTree.txt línea: 1177 columna: 51.
      1307          80  LOAD                                    ; Archivo: LinkedSearchBinaryTree.txt línea: 1179 columna: 1.
      1308           5  5                                       ; Archivo: LinkedSearchBinaryTree.txt línea: 1179 columna: 6.
      1309          80  LOAD                                    ; Archivo: LinkedSearchBinaryTree.txt línea: 1181 columna: 1.
      1310           4  4                                       ; Archivo: LinkedSearchBinaryTree.txt línea: 1181 columna: 6.
      1311         101  RMEM                                    ; Archivo: LinkedSearchBinaryTree.txt línea: 1183 columna: 1.
      1312           1  1                                       ; Archivo: LinkedSearchBinaryTree.txt línea: 1183 columna: 6.
      1313          32  SWAP                                    ; Archivo: LinkedSearchBinaryTree.txt línea: 1184 columna: 1.
      1314          30  DUP                                     ; Archivo: LinkedSearchBinaryTree.txt línea: 1186 columna: 1.
      1315          82  LOADREF                                 ; Archivo: LinkedSearchBinaryTree.txt línea: 1187 columna: 1.
      1316           0  0                                       ; Archivo: LinkedSearchBinaryTree.txt línea: 1187 columna: 9.
      1317          82  LOADREF                                 ; Archivo: LinkedSearchBinaryTree.txt línea: 1188 columna: 1.
      1318           5  5                                       ; Archivo: LinkedSearchBinaryTree.txt línea: 1188 columna: 9.
      1319         100  CALL                                    ; Archivo: LinkedSearchBinaryTree.txt línea: 1189 columna: 1.
      1320         101  RMEM                                    ; Archivo: LinkedSearchBinaryTree.txt línea: 1191 columna: 1.
      1321           1  1                                       ; Archivo: LinkedSearchBinaryTree.txt línea: 1191 columna: 6.
      1322          32  SWAP                                    ; Archivo: LinkedSearchBinaryTree.txt línea: 1192 columna: 1.
      1323          30  DUP                                     ; Archivo: LinkedSearchBinaryTree.txt línea: 1194 columna: 1.
      1324          82  LOADREF                                 ; Archivo: LinkedSearchBinaryTree.txt línea: 1195 columna: 1.
      1325           0  0                                       ; Archivo: LinkedSearchBinaryTree.txt línea: 1195 columna: 9.
      1326          82  LOADREF                                 ; Archivo: LinkedSearchBinaryTree.txt línea: 1196 columna: 1.
      1327           0  0                                       ; Archivo: LinkedSearchBinaryTree.txt línea: 1196 columna: 9.
      1328         100  CALL                                    ; Archivo: LinkedSearchBinaryTree.txt línea: 1197 columna: 1.
      1329          13  LT                                      ; Archivo: LinkedSearchBinaryTree.txt línea: 1199 columna: 1.
      1330          41  BF                                      ; Archivo: LinkedSearchBinaryTree.txt línea: 1201 columna: 1.
      1331        1365  L_ENDIF_15_treeSearch_LinkedSearchBinaryTree; Archivo: LinkedSearchBinaryTree.txt línea: 1201 columna: 4.
      1332          80  LOAD                                    ; Archivo: LinkedSearchBinaryTree.txt línea: 1203 columna: 1.
      1333           3  3                                       ; Archivo: LinkedSearchBinaryTree.txt línea: 1203 columna: 6.
      1334         101  RMEM                                    ; Archivo: LinkedSearchBinaryTree.txt línea: 1204 columna: 1.
      1335           1  1                                       ; Archivo: LinkedSearchBinaryTree.txt línea: 1204 columna: 6.
      1336          32  SWAP                                    ; Archivo: LinkedSearchBinaryTree.txt línea: 1205 columna: 1.
      1337          80  LOAD                                    ; Archivo: LinkedSearchBinaryTree.txt línea: 1207 columna: 1.
      1338           5  5                                       ; Archivo: LinkedSearchBinaryTree.txt línea: 1207 columna: 6.
      1339          32  SWAP                                    ; Archivo: LinkedSearchBinaryTree.txt línea: 1208 columna: 1.
      1340          80  LOAD                                    ; Archivo: LinkedSearchBinaryTree.txt línea: 1210 columna: 1.
      1341           4  4                                       ; Archivo: LinkedSearchBinaryTree.txt línea: 1210 columna: 6.
      1342         101  RMEM                                    ; Archivo: LinkedSearchBinaryTree.txt línea: 1212 columna: 1.
      1343           1  1                                       ; Archivo: LinkedSearchBinaryTree.txt línea: 1212 columna: 6.
      1344          32  SWAP                                    ; Archivo: LinkedSearchBinaryTree.txt línea: 1213 columna: 1.
      1345          30  DUP                                     ; Archivo: LinkedSearchBinaryTree.txt línea: 1215 columna: 1.
      1346          82  LOADREF                                 ; Archivo: LinkedSearchBinaryTree.txt línea: 1216 columna: 1.
      1347           0  0                                       ; Archivo: LinkedSearchBinaryTree.txt línea: 1216 columna: 9.
      1348          82  LOADREF                                 ; Archivo: LinkedSearchBinaryTree.txt línea: 1217 columna: 1.
      1349           6  6                                       ; Archivo: LinkedSearchBinaryTree.txt línea: 1217 columna: 9.
      1350         100  CALL                                    ; Archivo: LinkedSearchBinaryTree.txt línea: 1218 columna: 1.
      1351          32  SWAP                                    ; Archivo: LinkedSearchBinaryTree.txt línea: 1219 columna: 1.
      1352          30  DUP                                     ; Archivo: LinkedSearchBinaryTree.txt línea: 1220 columna: 1.
      1353          82  LOADREF                                 ; Archivo: LinkedSearchBinaryTree.txt línea: 1221 columna: 1.
      1354           0  0                                       ; Archivo: LinkedSearchBinaryTree.txt línea: 1221 columna: 9.
      1355          82  LOADREF                                 ; Archivo: LinkedSearchBinaryTree.txt línea: 1222 columna: 1.
      1356          18  18                                      ; Archivo: LinkedSearchBinaryTree.txt línea: 1222 columna: 9.
      1357         100  CALL                                    ; Archivo: LinkedSearchBinaryTree.txt línea: 1223 columna: 1.
      1358          81  STORE                                   ; Archivo: LinkedSearchBinaryTree.txt línea: 1226 columna: 1.
      1359           6  6                                       ; Archivo: LinkedSearchBinaryTree.txt línea: 1226 columna: 7.
      1360         125  STOREFP                                 ; Archivo: LinkedSearchBinaryTree.txt línea: 1227 columna: 1.
      1361         103  RET                                     ; Archivo: LinkedSearchBinaryTree.txt línea: 1228 columna: 1.
      1362           3  3                                       ; Archivo: LinkedSearchBinaryTree.txt línea: 1228 columna: 5.
      1363          40  JUMP                                    ; Archivo: LinkedSearchBinaryTree.txt línea: 1229 columna: 1.
      1364        1433  L_ENDELSE_15_treeSearch_LinkedSearchBinaryTree; Archivo: LinkedSearchBinaryTree.txt línea: 1229 columna: 6.
      1365           0  L_ENDIF_15_treeSearch_LinkedSearchBinaryTree: NOP; Archivo: LinkedSearchBinaryTree.txt línea: 1230 columna: 47.
      1366          80  LOAD                                    ; Archivo: LinkedSearchBinaryTree.txt línea: 1232 columna: 1.
      1367           5  5                                       ; Archivo: LinkedSearchBinaryTree.txt línea: 1232 columna: 6.
      1368          80  LOAD                                    ; Archivo: LinkedSearchBinaryTree.txt línea: 1234 columna: 1.
      1369           4  4                                       ; Archivo: LinkedSearchBinaryTree.txt línea: 1234 columna: 6.
      1370         101  RMEM                                    ; Archivo: LinkedSearchBinaryTree.txt línea: 1236 columna: 1.
      1371           1  1                                       ; Archivo: LinkedSearchBinaryTree.txt línea: 1236 columna: 6.
      1372          32  SWAP                                    ; Archivo: LinkedSearchBinaryTree.txt línea: 1237 columna: 1.
      1373          30  DUP                                     ; Archivo: LinkedSearchBinaryTree.txt línea: 1239 columna: 1.
      1374          82  LOADREF                                 ; Archivo: LinkedSearchBinaryTree.txt línea: 1240 columna: 1.
      1375           0  0                                       ; Archivo: LinkedSearchBinaryTree.txt línea: 1240 columna: 9.
      1376          82  LOADREF                                 ; Archivo: LinkedSearchBinaryTree.txt línea: 1241 columna: 1.
      1377           5  5                                       ; Archivo: LinkedSearchBinaryTree.txt línea: 1241 columna: 9.
      1378         100  CALL                                    ; Archivo: LinkedSearchBinaryTree.txt línea: 1242 columna: 1.
      1379         101  RMEM                                    ; Archivo: LinkedSearchBinaryTree.txt línea: 1244 columna: 1.
      1380           1  1                                       ; Archivo: LinkedSearchBinaryTree.txt línea: 1244 columna: 6.
      1381          32  SWAP                                    ; Archivo: LinkedSearchBinaryTree.txt línea: 1245 columna: 1.
      1382          30  DUP                                     ; Archivo: LinkedSearchBinaryTree.txt línea: 1247 columna: 1.
      1383          82  LOADREF                                 ; Archivo: LinkedSearchBinaryTree.txt línea: 1248 columna: 1.
      1384           0  0                                       ; Archivo: LinkedSearchBinaryTree.txt línea: 1248 columna: 9.
      1385          82  LOADREF                                 ; Archivo: LinkedSearchBinaryTree.txt línea: 1249 columna: 1.
      1386           0  0                                       ; Archivo: LinkedSearchBinaryTree.txt línea: 1249 columna: 9.
      1387         100  CALL                                    ; Archivo: LinkedSearchBinaryTree.txt línea: 1250 columna: 1.
      1388          14  GT                                      ; Archivo: LinkedSearchBinaryTree.txt línea: 1252 columna: 1.
      1389          41  BF                                      ; Archivo: LinkedSearchBinaryTree.txt línea: 1254 columna: 1.
      1390        1424  L_ENDIF_16_treeSearch_LinkedSearchBinaryTree; Archivo: LinkedSearchBinaryTree.txt línea: 1254 columna: 4.
      1391          80  LOAD                                    ; Archivo: LinkedSearchBinaryTree.txt línea: 1256 columna: 1.
      1392           3  3                                       ; Archivo: LinkedSearchBinaryTree.txt línea: 1256 columna: 6.
      1393         101  RMEM                                    ; Archivo: LinkedSearchBinaryTree.txt línea: 1257 columna: 1.
      1394           1  1                                       ; Archivo: LinkedSearchBinaryTree.txt línea: 1257 columna: 6.
      1395          32  SWAP                                    ; Archivo: LinkedSearchBinaryTree.txt línea: 1258 columna: 1.
      1396          80  LOAD                                    ; Archivo: LinkedSearchBinaryTree.txt línea: 1260 columna: 1.
      1397           5  5                                       ; Archivo: LinkedSearchBinaryTree.txt línea: 1260 columna: 6.
      1398          32  SWAP                                    ; Archivo: LinkedSearchBinaryTree.txt línea: 1261 columna: 1.
      1399          80  LOAD                                    ; Archivo: LinkedSearchBinaryTree.txt línea: 1263 columna: 1.
      1400           4  4                                       ; Archivo: LinkedSearchBinaryTree.txt línea: 1263 columna: 6.
      1401         101  RMEM                                    ; Archivo: LinkedSearchBinaryTree.txt línea: 1265 columna: 1.
      1402           1  1                                       ; Archivo: LinkedSearchBinaryTree.txt línea: 1265 columna: 6.
      1403          32  SWAP                                    ; Archivo: LinkedSearchBinaryTree.txt línea: 1266 columna: 1.
      1404          30  DUP                                     ; Archivo: LinkedSearchBinaryTree.txt línea: 1268 columna: 1.
      1405          82  LOADREF                                 ; Archivo: LinkedSearchBinaryTree.txt línea: 1269 columna: 1.
      1406           0  0                                       ; Archivo: LinkedSearchBinaryTree.txt línea: 1269 columna: 9.
      1407          82  LOADREF                                 ; Archivo: LinkedSearchBinaryTree.txt línea: 1270 columna: 1.
      1408           7  7                                       ; Archivo: LinkedSearchBinaryTree.txt línea: 1270 columna: 9.
      1409         100  CALL                                    ; Archivo: LinkedSearchBinaryTree.txt línea: 1271 columna: 1.
      1410          32  SWAP                                    ; Archivo: LinkedSearchBinaryTree.txt línea: 1272 columna: 1.
      1411          30  DUP                                     ; Archivo: LinkedSearchBinaryTree.txt línea: 1273 columna: 1.
      1412          82  LOADREF                                 ; Archivo: LinkedSearchBinaryTree.txt línea: 1274 columna: 1.
      1413           0  0                                       ; Archivo: LinkedSearchBinaryTree.txt línea: 1274 columna: 9.
      1414          82  LOADREF                                 ; Archivo: LinkedSearchBinaryTree.txt línea: 1275 columna: 1.
      1415          18  18                                      ; Archivo: LinkedSearchBinaryTree.txt línea: 1275 columna: 9.
      1416         100  CALL                                    ; Archivo: LinkedSearchBinaryTree.txt línea: 1276 columna: 1.
      1417          81  STORE                                   ; Archivo: LinkedSearchBinaryTree.txt línea: 1279 columna: 1.
      1418           6  6                                       ; Archivo: LinkedSearchBinaryTree.txt línea: 1279 columna: 7.
      1419         125  STOREFP                                 ; Archivo: LinkedSearchBinaryTree.txt línea: 1280 columna: 1.
      1420         103  RET                                     ; Archivo: LinkedSearchBinaryTree.txt línea: 1281 columna: 1.
      1421           3  3                                       ; Archivo: LinkedSearchBinaryTree.txt línea: 1281 columna: 5.
      1422          40  JUMP                                    ; Archivo: LinkedSearchBinaryTree.txt línea: 1282 columna: 1.
      1423        1432  L_ENDELSE_16_treeSearch_LinkedSearchBinaryTree; Archivo: LinkedSearchBinaryTree.txt línea: 1282 columna: 6.
      1424           0  L_ENDIF_16_treeSearch_LinkedSearchBinaryTree: NOP; Archivo: LinkedSearchBinaryTree.txt línea: 1283 columna: 47.
      1425          80  LOAD                                    ; Archivo: LinkedSearchBinaryTree.txt línea: 1285 columna: 1.
      1426           4  4                                       ; Archivo: LinkedSearchBinaryTree.txt línea: 1285 columna: 6.
      1427          81  STORE                                   ; Archivo: LinkedSearchBinaryTree.txt línea: 1288 columna: 1.
      1428           6  6                                       ; Archivo: LinkedSearchBinaryTree.txt línea: 1288 columna: 7.
      1429         125  STOREFP                                 ; Archivo: LinkedSearchBinaryTree.txt línea: 1289 columna: 1.
      1430         103  RET                                     ; Archivo: LinkedSearchBinaryTree.txt línea: 1290 columna: 1.
      1431           3  3                                       ; Archivo: LinkedSearchBinaryTree.txt línea: 1290 columna: 5.
      1432           0  L_ENDELSE_16_treeSearch_LinkedSearchBinaryTree: NOP; Archivo: LinkedSearchBinaryTree.txt línea: 1291 columna: 49.
      1433           0  L_ENDELSE_15_treeSearch_LinkedSearchBinaryTree: NOP; Archivo: LinkedSearchBinaryTree.txt línea: 1292 columna: 49.
      1434         125  STOREFP                                 ; Archivo: LinkedSearchBinaryTree.txt línea: 1293 columna: 1.
      1435         103  RET                                     ; Archivo: LinkedSearchBinaryTree.txt línea: 1294 columna: 1.
      1436           3  3                                       ; Archivo: LinkedSearchBinaryTree.txt línea: 1294 columna: 5.
      1437         124  L_MET_LinkedSearchBinaryTree_treeInsert: LOADFP; Archivo: LinkedSearchBinaryTree.txt línea: 1297 columna: 42.
      1438         122  LOADSP                                  ; Archivo: LinkedSearchBinaryTree.txt línea: 1298 columna: 1.
      1439         125  STOREFP                                 ; Archivo: LinkedSearchBinaryTree.txt línea: 1299 columna: 1.
      1440         101  RMEM                                    ; Archivo: LinkedSearchBinaryTree.txt línea: 1300 columna: 1.
      1441           1  1                                       ; Archivo: LinkedSearchBinaryTree.txt línea: 1300 columna: 6.
      1442          80  LOAD                                    ; Archivo: LinkedSearchBinaryTree.txt línea: 1302 columna: 1.
      1443           3  3                                       ; Archivo: LinkedSearchBinaryTree.txt línea: 1302 columna: 6.
      1444         101  RMEM                                    ; Archivo: LinkedSearchBinaryTree.txt línea: 1303 columna: 1.
      1445           1  1                                       ; Archivo: LinkedSearchBinaryTree.txt línea: 1303 columna: 6.
      1446          32  SWAP                                    ; Archivo: LinkedSearchBinaryTree.txt línea: 1304 columna: 1.
      1447          80  LOAD                                    ; Archivo: LinkedSearchBinaryTree.txt línea: 1306 columna: 1.
      1448           6  6                                       ; Archivo: LinkedSearchBinaryTree.txt línea: 1306 columna: 6.
      1449          32  SWAP                                    ; Archivo: LinkedSearchBinaryTree.txt línea: 1307 columna: 1.
      1450          80  LOAD                                    ; Archivo: LinkedSearchBinaryTree.txt línea: 1309 columna: 1.
      1451           4  4                                       ; Archivo: LinkedSearchBinaryTree.txt línea: 1309 columna: 6.
      1452          32  SWAP                                    ; Archivo: LinkedSearchBinaryTree.txt línea: 1310 columna: 1.
      1453          30  DUP                                     ; Archivo: LinkedSearchBinaryTree.txt línea: 1311 columna: 1.
      1454          82  LOADREF                                 ; Archivo: LinkedSearchBinaryTree.txt línea: 1312 columna: 1.
      1455           0  0                                       ; Archivo: LinkedSearchBinaryTree.txt línea: 1312 columna: 9.
      1456          82  LOADREF                                 ; Archivo: LinkedSearchBinaryTree.txt línea: 1313 columna: 1.
      1457          18  18                                      ; Archivo: LinkedSearchBinaryTree.txt línea: 1313 columna: 9.
      1458         100  CALL                                    ; Archivo: LinkedSearchBinaryTree.txt línea: 1314 columna: 1.
      1459          81  STORE                                   ; Archivo: LinkedSearchBinaryTree.txt línea: 1316 columna: 1.
      1460           0  0                                       ; Archivo: LinkedSearchBinaryTree.txt línea: 1316 columna: 7.
      1461          80  LOAD                                    ; Archivo: LinkedSearchBinaryTree.txt línea: 1318 columna: 1.
      1462           3  3                                       ; Archivo: LinkedSearchBinaryTree.txt línea: 1318 columna: 6.
      1463         101  RMEM                                    ; Archivo: LinkedSearchBinaryTree.txt línea: 1319 columna: 1.
      1464           1  1                                       ; Archivo: LinkedSearchBinaryTree.txt línea: 1319 columna: 6.
      1465          32  SWAP                                    ; Archivo: LinkedSearchBinaryTree.txt línea: 1320 columna: 1.
      1466          80  LOAD                                    ; Archivo: LinkedSearchBinaryTree.txt línea: 1322 columna: 1.
      1467           0  0                                       ; Archivo: LinkedSearchBinaryTree.txt línea: 1322 columna: 6.
      1468          32  SWAP                                    ; Archivo: LinkedSearchBinaryTree.txt línea: 1323 columna: 1.
      1469          30  DUP                                     ; Archivo: LinkedSearchBinaryTree.txt línea: 1324 columna: 1.
      1470          82  LOADREF                                 ; Archivo: LinkedSearchBinaryTree.txt línea: 1325 columna: 1.
      1471           0  0                                       ; Archivo: LinkedSearchBinaryTree.txt línea: 1325 columna: 9.
      1472          82  LOADREF                                 ; Archivo: LinkedSearchBinaryTree.txt línea: 1326 columna: 1.
      1473           7  7                                       ; Archivo: LinkedSearchBinaryTree.txt línea: 1326 columna: 9.
      1474         100  CALL                                    ; Archivo: LinkedSearchBinaryTree.txt línea: 1327 columna: 1.
      1475          41  BF                                      ; Archivo: LinkedSearchBinaryTree.txt línea: 1329 columna: 1.
      1476        1506  L_ENDIF_17_treeInsert_LinkedSearchBinaryTree; Archivo: LinkedSearchBinaryTree.txt línea: 1329 columna: 4.
      1477          80  LOAD                                    ; Archivo: LinkedSearchBinaryTree.txt línea: 1331 columna: 1.
      1478           3  3                                       ; Archivo: LinkedSearchBinaryTree.txt línea: 1331 columna: 6.
      1479         101  RMEM                                    ; Archivo: LinkedSearchBinaryTree.txt línea: 1332 columna: 1.
      1480           1  1                                       ; Archivo: LinkedSearchBinaryTree.txt línea: 1332 columna: 6.
      1481          32  SWAP                                    ; Archivo: LinkedSearchBinaryTree.txt línea: 1333 columna: 1.
      1482          80  LOAD                                    ; Archivo: LinkedSearchBinaryTree.txt línea: 1335 columna: 1.
      1483           6  6                                       ; Archivo: LinkedSearchBinaryTree.txt línea: 1335 columna: 6.
      1484          32  SWAP                                    ; Archivo: LinkedSearchBinaryTree.txt línea: 1336 columna: 1.
      1485          80  LOAD                                    ; Archivo: LinkedSearchBinaryTree.txt línea: 1338 columna: 1.
      1486           5  5                                       ; Archivo: LinkedSearchBinaryTree.txt línea: 1338 columna: 6.
      1487          32  SWAP                                    ; Archivo: LinkedSearchBinaryTree.txt línea: 1339 columna: 1.
      1488          80  LOAD                                    ; Archivo: LinkedSearchBinaryTree.txt línea: 1341 columna: 1.
      1489           0  0                                       ; Archivo: LinkedSearchBinaryTree.txt línea: 1341 columna: 6.
      1490          32  SWAP                                    ; Archivo: LinkedSearchBinaryTree.txt línea: 1342 columna: 1.
      1491          30  DUP                                     ; Archivo: LinkedSearchBinaryTree.txt línea: 1343 columna: 1.
      1492          82  LOADREF                                 ; Archivo: LinkedSearchBinaryTree.txt línea: 1344 columna: 1.
      1493           0  0                                       ; Archivo: LinkedSearchBinaryTree.txt línea: 1344 columna: 9.
      1494          82  LOADREF                                 ; Archivo: LinkedSearchBinaryTree.txt línea: 1345 columna: 1.
      1495          20  20                                      ; Archivo: LinkedSearchBinaryTree.txt línea: 1345 columna: 9.
      1496         100  CALL                                    ; Archivo: LinkedSearchBinaryTree.txt línea: 1346 columna: 1.
      1497          81  STORE                                   ; Archivo: LinkedSearchBinaryTree.txt línea: 1349 columna: 1.
      1498           7  7                                       ; Archivo: LinkedSearchBinaryTree.txt línea: 1349 columna: 7.
      1499         102  FMEM                                    ; Archivo: LinkedSearchBinaryTree.txt línea: 1350 columna: 1.
      1500           1  1                                       ; Archivo: LinkedSearchBinaryTree.txt línea: 1350 columna: 6.
      1501         125  STOREFP                                 ; Archivo: LinkedSearchBinaryTree.txt línea: 1351 columna: 1.
      1502         103  RET                                     ; Archivo: LinkedSearchBinaryTree.txt línea: 1352 columna: 1.
      1503           4  4                                       ; Archivo: LinkedSearchBinaryTree.txt línea: 1352 columna: 5.
      1504          40  JUMP                                    ; Archivo: LinkedSearchBinaryTree.txt línea: 1353 columna: 1.
      1505        1516  L_ENDELSE_17_treeInsert_LinkedSearchBinaryTree; Archivo: LinkedSearchBinaryTree.txt línea: 1353 columna: 6.
      1506           0  L_ENDIF_17_treeInsert_LinkedSearchBinaryTree: NOP; Archivo: LinkedSearchBinaryTree.txt línea: 1354 columna: 47.
      1507           1  PUSH                                    ; Archivo: LinkedSearchBinaryTree.txt línea: 1356 columna: 1.
      1508           0  0                                       ; Archivo: LinkedSearchBinaryTree.txt línea: 1356 columna: 6.
      1509          81  STORE                                   ; Archivo: LinkedSearchBinaryTree.txt línea: 1359 columna: 1.
      1510           7  7                                       ; Archivo: LinkedSearchBinaryTree.txt línea: 1359 columna: 7.
      1511         102  FMEM                                    ; Archivo: LinkedSearchBinaryTree.txt línea: 1360 columna: 1.
      1512           1  1                                       ; Archivo: LinkedSearchBinaryTree.txt línea: 1360 columna: 6.
      1513         125  STOREFP                                 ; Archivo: LinkedSearchBinaryTree.txt línea: 1361 columna: 1.
      1514         103  RET                                     ; Archivo: LinkedSearchBinaryTree.txt línea: 1362 columna: 1.
      1515           4  4                                       ; Archivo: LinkedSearchBinaryTree.txt línea: 1362 columna: 5.
      1516           0  L_ENDELSE_17_treeInsert_LinkedSearchBinaryTree: NOP; Archivo: LinkedSearchBinaryTree.txt línea: 1363 columna: 49.
      1517         102  FMEM                                    ; Archivo: LinkedSearchBinaryTree.txt línea: 1364 columna: 1.
      1518           1  1                                       ; Archivo: LinkedSearchBinaryTree.txt línea: 1364 columna: 6.
      1519         125  STOREFP                                 ; Archivo: LinkedSearchBinaryTree.txt línea: 1365 columna: 1.
      1520         103  RET                                     ; Archivo: LinkedSearchBinaryTree.txt línea: 1366 columna: 1.
      1521           4  4                                       ; Archivo: LinkedSearchBinaryTree.txt línea: 1366 columna: 5.
      1522         124  L_MET_LinkedSearchBinaryTree_insertExternalNode: LOADFP; Archivo: LinkedSearchBinaryTree.txt línea: 1369 columna: 50.
      1523         122  LOADSP                                  ; Archivo: LinkedSearchBinaryTree.txt línea: 1370 columna: 1.
      1524         125  STOREFP                                 ; Archivo: LinkedSearchBinaryTree.txt línea: 1371 columna: 1.
      1525          80  LOAD                                    ; Archivo: LinkedSearchBinaryTree.txt línea: 1373 columna: 1.
      1526           4  4                                       ; Archivo: LinkedSearchBinaryTree.txt línea: 1373 columna: 6.
      1527         101  RMEM                                    ; Archivo: LinkedSearchBinaryTree.txt línea: 1376 columna: 1.
      1528           1  1                                       ; Archivo: LinkedSearchBinaryTree.txt línea: 1376 columna: 6.
      1529           1  PUSH                                    ; Archivo: LinkedSearchBinaryTree.txt línea: 1377 columna: 1.
      1530           3  3                                       ; Archivo: LinkedSearchBinaryTree.txt línea: 1377 columna: 6.
      1531           1  PUSH                                    ; Archivo: LinkedSearchBinaryTree.txt línea: 1378 columna: 1.
      1532         118  L_SIMPLE_MALLOC                         ; Archivo: LinkedSearchBinaryTree.txt línea: 1378 columna: 6.
      1533         100  CALL                                    ; Archivo: LinkedSearchBinaryTree.txt línea: 1379 columna: 1.
      1534          30  DUP                                     ; Archivo: LinkedSearchBinaryTree.txt línea: 1380 columna: 1.
      1535           1  PUSH                                    ; Archivo: LinkedSearchBinaryTree.txt línea: 1381 columna: 1.
      1536        2842  VT_Entry                                ; Archivo: LinkedSearchBinaryTree.txt línea: 1381 columna: 6.
      1537          83  STOREREF                                ; Archivo: LinkedSearchBinaryTree.txt línea: 1382 columna: 1.
      1538           0  0                                       ; Archivo: LinkedSearchBinaryTree.txt línea: 1382 columna: 10.
      1539          30  DUP                                     ; Archivo: LinkedSearchBinaryTree.txt línea: 1383 columna: 1.
      1540          80  LOAD                                    ; Archivo: LinkedSearchBinaryTree.txt línea: 1385 columna: 1.
      1541           6  6                                       ; Archivo: LinkedSearchBinaryTree.txt línea: 1385 columna: 6.
      1542          32  SWAP                                    ; Archivo: LinkedSearchBinaryTree.txt línea: 1387 columna: 1.
      1543          80  LOAD                                    ; Archivo: LinkedSearchBinaryTree.txt línea: 1389 columna: 1.
      1544           5  5                                       ; Archivo: LinkedSearchBinaryTree.txt línea: 1389 columna: 6.
      1545          32  SWAP                                    ; Archivo: LinkedSearchBinaryTree.txt línea: 1391 columna: 1.
      1546           1  PUSH                                    ; Archivo: LinkedSearchBinaryTree.txt línea: 1393 columna: 1.
      1547        2027  L_CTOR_Entry_Entry                      ; Archivo: LinkedSearchBinaryTree.txt línea: 1393 columna: 6.
      1548         100  CALL                                    ; Archivo: LinkedSearchBinaryTree.txt línea: 1394 columna: 1.
      1549          32  SWAP                                    ; Archivo: LinkedSearchBinaryTree.txt línea: 1395 columna: 1.
      1550          30  DUP                                     ; Archivo: LinkedSearchBinaryTree.txt línea: 1397 columna: 1.
      1551          82  LOADREF                                 ; Archivo: LinkedSearchBinaryTree.txt línea: 1398 columna: 1.
      1552           0  0                                       ; Archivo: LinkedSearchBinaryTree.txt línea: 1398 columna: 9.
      1553          82  LOADREF                                 ; Archivo: LinkedSearchBinaryTree.txt línea: 1399 columna: 1.
      1554           3  3                                       ; Archivo: LinkedSearchBinaryTree.txt línea: 1399 columna: 9.
      1555         100  CALL                                    ; Archivo: LinkedSearchBinaryTree.txt línea: 1400 columna: 1.
      1556          80  LOAD                                    ; Archivo: LinkedSearchBinaryTree.txt línea: 1402 columna: 1.
      1557           3  3                                       ; Archivo: LinkedSearchBinaryTree.txt línea: 1402 columna: 6.
      1558         101  RMEM                                    ; Archivo: LinkedSearchBinaryTree.txt línea: 1403 columna: 1.
      1559           1  1                                       ; Archivo: LinkedSearchBinaryTree.txt línea: 1403 columna: 6.
      1560          32  SWAP                                    ; Archivo: LinkedSearchBinaryTree.txt línea: 1404 columna: 1.
      1561          80  LOAD                                    ; Archivo: LinkedSearchBinaryTree.txt línea: 1406 columna: 1.
      1562           4  4                                       ; Archivo: LinkedSearchBinaryTree.txt línea: 1406 columna: 6.
      1563          32  SWAP                                    ; Archivo: LinkedSearchBinaryTree.txt línea: 1407 columna: 1.
      1564           1  PUSH                                    ; Archivo: LinkedSearchBinaryTree.txt línea: 1409 columna: 1.
      1565           0  0                                       ; Archivo: LinkedSearchBinaryTree.txt línea: 1409 columna: 6.
      1566          32  SWAP                                    ; Archivo: LinkedSearchBinaryTree.txt línea: 1410 columna: 1.
      1567          30  DUP                                     ; Archivo: LinkedSearchBinaryTree.txt línea: 1411 columna: 1.
      1568          82  LOADREF                                 ; Archivo: LinkedSearchBinaryTree.txt línea: 1412 columna: 1.
      1569           0  0                                       ; Archivo: LinkedSearchBinaryTree.txt línea: 1412 columna: 9.
      1570          82  LOADREF                                 ; Archivo: LinkedSearchBinaryTree.txt línea: 1413 columna: 1.
      1571          10  10                                      ; Archivo: LinkedSearchBinaryTree.txt línea: 1413 columna: 9.
      1572         100  CALL                                    ; Archivo: LinkedSearchBinaryTree.txt línea: 1414 columna: 1.
      1573          31  POP                                     ; Archivo: LinkedSearchBinaryTree.txt línea: 1415 columna: 1.
      1574          80  LOAD                                    ; Archivo: LinkedSearchBinaryTree.txt línea: 1417 columna: 1.
      1575           3  3                                       ; Archivo: LinkedSearchBinaryTree.txt línea: 1417 columna: 6.
      1576         101  RMEM                                    ; Archivo: LinkedSearchBinaryTree.txt línea: 1418 columna: 1.
      1577           1  1                                       ; Archivo: LinkedSearchBinaryTree.txt línea: 1418 columna: 6.
      1578          32  SWAP                                    ; Archivo: LinkedSearchBinaryTree.txt línea: 1419 columna: 1.
      1579          80  LOAD                                    ; Archivo: LinkedSearchBinaryTree.txt línea: 1421 columna: 1.
      1580           4  4                                       ; Archivo: LinkedSearchBinaryTree.txt línea: 1421 columna: 6.
      1581          32  SWAP                                    ; Archivo: LinkedSearchBinaryTree.txt línea: 1422 columna: 1.
      1582           1  PUSH                                    ; Archivo: LinkedSearchBinaryTree.txt línea: 1424 columna: 1.
      1583           0  0                                       ; Archivo: LinkedSearchBinaryTree.txt línea: 1424 columna: 6.
      1584          32  SWAP                                    ; Archivo: LinkedSearchBinaryTree.txt línea: 1425 columna: 1.
      1585          30  DUP                                     ; Archivo: LinkedSearchBinaryTree.txt línea: 1426 columna: 1.
      1586          82  LOADREF                                 ; Archivo: LinkedSearchBinaryTree.txt línea: 1427 columna: 1.
      1587           0  0                                       ; Archivo: LinkedSearchBinaryTree.txt línea: 1427 columna: 9.
      1588          82  LOADREF                                 ; Archivo: LinkedSearchBinaryTree.txt línea: 1428 columna: 1.
      1589          11  11                                      ; Archivo: LinkedSearchBinaryTree.txt línea: 1428 columna: 9.
      1590         100  CALL                                    ; Archivo: LinkedSearchBinaryTree.txt línea: 1429 columna: 1.
      1591          31  POP                                     ; Archivo: LinkedSearchBinaryTree.txt línea: 1430 columna: 1.
      1592          80  LOAD                                    ; Archivo: LinkedSearchBinaryTree.txt línea: 1432 columna: 1.
      1593           4  4                                       ; Archivo: LinkedSearchBinaryTree.txt línea: 1432 columna: 6.
      1594         101  RMEM                                    ; Archivo: LinkedSearchBinaryTree.txt línea: 1434 columna: 1.
      1595           1  1                                       ; Archivo: LinkedSearchBinaryTree.txt línea: 1434 columna: 6.
      1596          32  SWAP                                    ; Archivo: LinkedSearchBinaryTree.txt línea: 1435 columna: 1.
      1597          30  DUP                                     ; Archivo: LinkedSearchBinaryTree.txt línea: 1437 columna: 1.
      1598          82  LOADREF                                 ; Archivo: LinkedSearchBinaryTree.txt línea: 1438 columna: 1.
      1599           0  0                                       ; Archivo: LinkedSearchBinaryTree.txt línea: 1438 columna: 9.
      1600          82  LOADREF                                 ; Archivo: LinkedSearchBinaryTree.txt línea: 1439 columna: 1.
      1601           5  5                                       ; Archivo: LinkedSearchBinaryTree.txt línea: 1439 columna: 9.
      1602         100  CALL                                    ; Archivo: LinkedSearchBinaryTree.txt línea: 1440 columna: 1.
      1603          81  STORE                                   ; Archivo: LinkedSearchBinaryTree.txt línea: 1443 columna: 1.
      1604           7  7                                       ; Archivo: LinkedSearchBinaryTree.txt línea: 1443 columna: 7.
      1605         125  STOREFP                                 ; Archivo: LinkedSearchBinaryTree.txt línea: 1444 columna: 1.
      1606         103  RET                                     ; Archivo: LinkedSearchBinaryTree.txt línea: 1445 columna: 1.
      1607           4  4                                       ; Archivo: LinkedSearchBinaryTree.txt línea: 1445 columna: 5.
      1608         125  STOREFP                                 ; Archivo: LinkedSearchBinaryTree.txt línea: 1446 columna: 1.
      1609         103  RET                                     ; Archivo: LinkedSearchBinaryTree.txt línea: 1447 columna: 1.
      1610           4  4                                       ; Archivo: LinkedSearchBinaryTree.txt línea: 1447 columna: 5.
      1611         124  L_MET_LinkedSearchBinaryTree_removeExternal: LOADFP; Archivo: LinkedSearchBinaryTree.txt línea: 1450 columna: 46.
      1612         122  LOADSP                                  ; Archivo: LinkedSearchBinaryTree.txt línea: 1451 columna: 1.
      1613         125  STOREFP                                 ; Archivo: LinkedSearchBinaryTree.txt línea: 1452 columna: 1.
      1614         101  RMEM                                    ; Archivo: LinkedSearchBinaryTree.txt línea: 1453 columna: 1.
      1615           3  3                                       ; Archivo: LinkedSearchBinaryTree.txt línea: 1453 columna: 6.
      1616          80  LOAD                                    ; Archivo: LinkedSearchBinaryTree.txt línea: 1455 columna: 1.
      1617           3  3                                       ; Archivo: LinkedSearchBinaryTree.txt línea: 1455 columna: 6.
      1618         101  RMEM                                    ; Archivo: LinkedSearchBinaryTree.txt línea: 1456 columna: 1.
      1619           1  1                                       ; Archivo: LinkedSearchBinaryTree.txt línea: 1456 columna: 6.
      1620          32  SWAP                                    ; Archivo: LinkedSearchBinaryTree.txt línea: 1457 columna: 1.
      1621          80  LOAD                                    ; Archivo: LinkedSearchBinaryTree.txt línea: 1459 columna: 1.
      1622           4  4                                       ; Archivo: LinkedSearchBinaryTree.txt línea: 1459 columna: 6.
      1623          32  SWAP                                    ; Archivo: LinkedSearchBinaryTree.txt línea: 1460 columna: 1.
      1624          30  DUP                                     ; Archivo: LinkedSearchBinaryTree.txt línea: 1461 columna: 1.
      1625          82  LOADREF                                 ; Archivo: LinkedSearchBinaryTree.txt línea: 1462 columna: 1.
      1626           0  0                                       ; Archivo: LinkedSearchBinaryTree.txt línea: 1462 columna: 9.
      1627          82  LOADREF                                 ; Archivo: LinkedSearchBinaryTree.txt línea: 1463 columna: 1.
      1628           7  7                                       ; Archivo: LinkedSearchBinaryTree.txt línea: 1463 columna: 9.
      1629         100  CALL                                    ; Archivo: LinkedSearchBinaryTree.txt línea: 1464 columna: 1.
      1630          41  BF                                      ; Archivo: LinkedSearchBinaryTree.txt línea: 1466 columna: 1.
      1631        1744  L_ENDIFTHEN_18_removeExternal_LinkedSearchBinaryTree; Archivo: LinkedSearchBinaryTree.txt línea: 1466 columna: 4.
      1632          80  LOAD                                    ; Archivo: LinkedSearchBinaryTree.txt línea: 1468 columna: 1.
      1633           3  3                                       ; Archivo: LinkedSearchBinaryTree.txt línea: 1468 columna: 6.
      1634         101  RMEM                                    ; Archivo: LinkedSearchBinaryTree.txt línea: 1469 columna: 1.
      1635           1  1                                       ; Archivo: LinkedSearchBinaryTree.txt línea: 1469 columna: 6.
      1636          32  SWAP                                    ; Archivo: LinkedSearchBinaryTree.txt línea: 1470 columna: 1.
      1637          80  LOAD                                    ; Archivo: LinkedSearchBinaryTree.txt línea: 1472 columna: 1.
      1638           4  4                                       ; Archivo: LinkedSearchBinaryTree.txt línea: 1472 columna: 6.
      1639          32  SWAP                                    ; Archivo: LinkedSearchBinaryTree.txt línea: 1473 columna: 1.
      1640          30  DUP                                     ; Archivo: LinkedSearchBinaryTree.txt línea: 1474 columna: 1.
      1641          82  LOADREF                                 ; Archivo: LinkedSearchBinaryTree.txt línea: 1475 columna: 1.
      1642           0  0                                       ; Archivo: LinkedSearchBinaryTree.txt línea: 1475 columna: 9.
      1643          82  LOADREF                                 ; Archivo: LinkedSearchBinaryTree.txt línea: 1476 columna: 1.
      1644           5  5                                       ; Archivo: LinkedSearchBinaryTree.txt línea: 1476 columna: 9.
      1645         100  CALL                                    ; Archivo: LinkedSearchBinaryTree.txt línea: 1477 columna: 1.
      1646          81  STORE                                   ; Archivo: LinkedSearchBinaryTree.txt línea: 1479 columna: 1.
      1647          -2  -2                                      ; Archivo: LinkedSearchBinaryTree.txt línea: 1479 columna: 7.
      1648          80  LOAD                                    ; Archivo: LinkedSearchBinaryTree.txt línea: 1481 columna: 1.
      1649          -2  -2                                      ; Archivo: LinkedSearchBinaryTree.txt línea: 1481 columna: 6.
      1650         101  RMEM                                    ; Archivo: LinkedSearchBinaryTree.txt línea: 1483 columna: 1.
      1651           1  1                                       ; Archivo: LinkedSearchBinaryTree.txt línea: 1483 columna: 6.
      1652          32  SWAP                                    ; Archivo: LinkedSearchBinaryTree.txt línea: 1484 columna: 1.
      1653          30  DUP                                     ; Archivo: LinkedSearchBinaryTree.txt línea: 1486 columna: 1.
      1654          82  LOADREF                                 ; Archivo: LinkedSearchBinaryTree.txt línea: 1487 columna: 1.
      1655           0  0                                       ; Archivo: LinkedSearchBinaryTree.txt línea: 1487 columna: 9.
      1656          82  LOADREF                                 ; Archivo: LinkedSearchBinaryTree.txt línea: 1488 columna: 1.
      1657           7  7                                       ; Archivo: LinkedSearchBinaryTree.txt línea: 1488 columna: 9.
      1658         100  CALL                                    ; Archivo: LinkedSearchBinaryTree.txt línea: 1489 columna: 1.
      1659          81  STORE                                   ; Archivo: LinkedSearchBinaryTree.txt línea: 1491 columna: 1.
      1660          -1  -1                                      ; Archivo: LinkedSearchBinaryTree.txt línea: 1491 columna: 7.
      1661          80  LOAD                                    ; Archivo: LinkedSearchBinaryTree.txt línea: 1493 columna: 1.
      1662          -2  -2                                      ; Archivo: LinkedSearchBinaryTree.txt línea: 1493 columna: 6.
      1663         101  RMEM                                    ; Archivo: LinkedSearchBinaryTree.txt línea: 1495 columna: 1.
      1664           1  1                                       ; Archivo: LinkedSearchBinaryTree.txt línea: 1495 columna: 6.
      1665          32  SWAP                                    ; Archivo: LinkedSearchBinaryTree.txt línea: 1496 columna: 1.
      1666          30  DUP                                     ; Archivo: LinkedSearchBinaryTree.txt línea: 1498 columna: 1.
      1667          82  LOADREF                                 ; Archivo: LinkedSearchBinaryTree.txt línea: 1499 columna: 1.
      1668           0  0                                       ; Archivo: LinkedSearchBinaryTree.txt línea: 1499 columna: 9.
      1669          82  LOADREF                                 ; Archivo: LinkedSearchBinaryTree.txt línea: 1500 columna: 1.
      1670           4  4                                       ; Archivo: LinkedSearchBinaryTree.txt línea: 1500 columna: 9.
      1671         100  CALL                                    ; Archivo: LinkedSearchBinaryTree.txt línea: 1501 columna: 1.
      1672          81  STORE                                   ; Archivo: LinkedSearchBinaryTree.txt línea: 1503 columna: 1.
      1673           0  0                                       ; Archivo: LinkedSearchBinaryTree.txt línea: 1503 columna: 7.
      1674          80  LOAD                                    ; Archivo: LinkedSearchBinaryTree.txt línea: 1505 columna: 1.
      1675           0  0                                       ; Archivo: LinkedSearchBinaryTree.txt línea: 1505 columna: 6.
      1676         101  RMEM                                    ; Archivo: LinkedSearchBinaryTree.txt línea: 1507 columna: 1.
      1677           1  1                                       ; Archivo: LinkedSearchBinaryTree.txt línea: 1507 columna: 6.
      1678          32  SWAP                                    ; Archivo: LinkedSearchBinaryTree.txt línea: 1508 columna: 1.
      1679          30  DUP                                     ; Archivo: LinkedSearchBinaryTree.txt línea: 1510 columna: 1.
      1680          82  LOADREF                                 ; Archivo: LinkedSearchBinaryTree.txt línea: 1511 columna: 1.
      1681           0  0                                       ; Archivo: LinkedSearchBinaryTree.txt línea: 1511 columna: 9.
      1682          82  LOADREF                                 ; Archivo: LinkedSearchBinaryTree.txt línea: 1512 columna: 1.
      1683           6  6                                       ; Archivo: LinkedSearchBinaryTree.txt línea: 1512 columna: 9.
      1684         100  CALL                                    ; Archivo: LinkedSearchBinaryTree.txt línea: 1513 columna: 1.
      1685          80  LOAD                                    ; Archivo: LinkedSearchBinaryTree.txt línea: 1515 columna: 1.
      1686          -2  -2                                      ; Archivo: LinkedSearchBinaryTree.txt línea: 1515 columna: 6.
      1687          11  EQ                                      ; Archivo: LinkedSearchBinaryTree.txt línea: 1517 columna: 1.
      1688          41  BF                                      ; Archivo: LinkedSearchBinaryTree.txt línea: 1519 columna: 1.
      1689        1703  L_ENDIF_19_removeExternal_LinkedSearchBinaryTree; Archivo: LinkedSearchBinaryTree.txt línea: 1519 columna: 4.
      1690          80  LOAD                                    ; Archivo: LinkedSearchBinaryTree.txt línea: 1521 columna: 1.
      1691           0  0                                       ; Archivo: LinkedSearchBinaryTree.txt línea: 1521 columna: 6.
      1692          80  LOAD                                    ; Archivo: LinkedSearchBinaryTree.txt línea: 1524 columna: 1.
      1693          -1  -1                                      ; Archivo: LinkedSearchBinaryTree.txt línea: 1524 columna: 6.
      1694          32  SWAP                                    ; Archivo: LinkedSearchBinaryTree.txt línea: 1525 columna: 1.
      1695          30  DUP                                     ; Archivo: LinkedSearchBinaryTree.txt línea: 1527 columna: 1.
      1696          82  LOADREF                                 ; Archivo: LinkedSearchBinaryTree.txt línea: 1528 columna: 1.
      1697           0  0                                       ; Archivo: LinkedSearchBinaryTree.txt línea: 1528 columna: 9.
      1698          82  LOADREF                                 ; Archivo: LinkedSearchBinaryTree.txt línea: 1529 columna: 1.
      1699           1  1                                       ; Archivo: LinkedSearchBinaryTree.txt línea: 1529 columna: 9.
      1700         100  CALL                                    ; Archivo: LinkedSearchBinaryTree.txt línea: 1530 columna: 1.
      1701          40  JUMP                                    ; Archivo: LinkedSearchBinaryTree.txt línea: 1531 columna: 1.
      1702        1732  L_ENDELSE_19_removeExternal_LinkedSearchBinaryTree; Archivo: LinkedSearchBinaryTree.txt línea: 1531 columna: 6.
      1703           0  L_ENDIF_19_removeExternal_LinkedSearchBinaryTree: NOP; Archivo: LinkedSearchBinaryTree.txt línea: 1532 columna: 51.
      1704          80  LOAD                                    ; Archivo: LinkedSearchBinaryTree.txt línea: 1534 columna: 1.
      1705           0  0                                       ; Archivo: LinkedSearchBinaryTree.txt línea: 1534 columna: 6.
      1706         101  RMEM                                    ; Archivo: LinkedSearchBinaryTree.txt línea: 1536 columna: 1.
      1707           1  1                                       ; Archivo: LinkedSearchBinaryTree.txt línea: 1536 columna: 6.
      1708          32  SWAP                                    ; Archivo: LinkedSearchBinaryTree.txt línea: 1537 columna: 1.
      1709          30  DUP                                     ; Archivo: LinkedSearchBinaryTree.txt línea: 1539 columna: 1.
      1710          82  LOADREF                                 ; Archivo: LinkedSearchBinaryTree.txt línea: 1540 columna: 1.
      1711           0  0                                       ; Archivo: LinkedSearchBinaryTree.txt línea: 1540 columna: 9.
      1712          82  LOADREF                                 ; Archivo: LinkedSearchBinaryTree.txt línea: 1541 columna: 1.
      1713           7  7                                       ; Archivo: LinkedSearchBinaryTree.txt línea: 1541 columna: 9.
      1714         100  CALL                                    ; Archivo: LinkedSearchBinaryTree.txt línea: 1542 columna: 1.
      1715          80  LOAD                                    ; Archivo: LinkedSearchBinaryTree.txt línea: 1544 columna: 1.
      1716          -2  -2                                      ; Archivo: LinkedSearchBinaryTree.txt línea: 1544 columna: 6.
      1717          11  EQ                                      ; Archivo: LinkedSearchBinaryTree.txt línea: 1546 columna: 1.
      1718          41  BF                                      ; Archivo: LinkedSearchBinaryTree.txt línea: 1548 columna: 1.
      1719        1731  L_ENDIFTHEN_20_removeExternal_LinkedSearchBinaryTree; Archivo: LinkedSearchBinaryTree.txt línea: 1548 columna: 4.
      1720          80  LOAD                                    ; Archivo: LinkedSearchBinaryTree.txt línea: 1550 columna: 1.
      1721           0  0                                       ; Archivo: LinkedSearchBinaryTree.txt línea: 1550 columna: 6.
      1722          80  LOAD                                    ; Archivo: LinkedSearchBinaryTree.txt línea: 1553 columna: 1.
      1723          -1  -1                                      ; Archivo: LinkedSearchBinaryTree.txt línea: 1553 columna: 6.
      1724          32  SWAP                                    ; Archivo: LinkedSearchBinaryTree.txt línea: 1554 columna: 1.
      1725          30  DUP                                     ; Archivo: LinkedSearchBinaryTree.txt línea: 1556 columna: 1.
      1726          82  LOADREF                                 ; Archivo: LinkedSearchBinaryTree.txt línea: 1557 columna: 1.
      1727           0  0                                       ; Archivo: LinkedSearchBinaryTree.txt línea: 1557 columna: 9.
      1728          82  LOADREF                                 ; Archivo: LinkedSearchBinaryTree.txt línea: 1558 columna: 1.
      1729           2  2                                       ; Archivo: LinkedSearchBinaryTree.txt línea: 1558 columna: 9.
      1730         100  CALL                                    ; Archivo: LinkedSearchBinaryTree.txt línea: 1559 columna: 1.
      1731           0  L_ENDIFTHEN_20_removeExternal_LinkedSearchBinaryTree: NOP; Archivo: LinkedSearchBinaryTree.txt línea: 1560 columna: 55.
      1732           0  L_ENDELSE_19_removeExternal_LinkedSearchBinaryTree: NOP; Archivo: LinkedSearchBinaryTree.txt línea: 1561 columna: 53.
      1733          80  LOAD                                    ; Archivo: LinkedSearchBinaryTree.txt línea: 1563 columna: 1.
      1734          -1  -1                                      ; Archivo: LinkedSearchBinaryTree.txt línea: 1563 columna: 6.
      1735          80  LOAD                                    ; Archivo: LinkedSearchBinaryTree.txt línea: 1566 columna: 1.
      1736           0  0                                       ; Archivo: LinkedSearchBinaryTree.txt línea: 1566 columna: 6.
      1737          32  SWAP                                    ; Archivo: LinkedSearchBinaryTree.txt línea: 1567 columna: 1.
      1738          30  DUP                                     ; Archivo: LinkedSearchBinaryTree.txt línea: 1569 columna: 1.
      1739          82  LOADREF                                 ; Archivo: LinkedSearchBinaryTree.txt línea: 1570 columna: 1.
      1740           0  0                                       ; Archivo: LinkedSearchBinaryTree.txt línea: 1570 columna: 9.
      1741          82  LOADREF                                 ; Archivo: LinkedSearchBinaryTree.txt línea: 1571 columna: 1.
      1742           0  0                                       ; Archivo: LinkedSearchBinaryTree.txt línea: 1571 columna: 9.
      1743         100  CALL                                    ; Archivo: LinkedSearchBinaryTree.txt línea: 1572 columna: 1.
      1744           0  L_ENDIFTHEN_18_removeExternal_LinkedSearchBinaryTree: NOP; Archivo: LinkedSearchBinaryTree.txt línea: 1573 columna: 55.
      1745         102  FMEM                                    ; Archivo: LinkedSearchBinaryTree.txt línea: 1574 columna: 1.
      1746           3  3                                       ; Archivo: LinkedSearchBinaryTree.txt línea: 1574 columna: 6.
      1747         125  STOREFP                                 ; Archivo: LinkedSearchBinaryTree.txt línea: 1575 columna: 1.
      1748         103  RET                                     ; Archivo: LinkedSearchBinaryTree.txt línea: 1576 columna: 1.
      1749           2  2                                       ; Archivo: LinkedSearchBinaryTree.txt línea: 1576 columna: 5.
      1750         124  L_MET_LinkedSearchBinaryTree_removeMin: LOADFP; Archivo: LinkedSearchBinaryTree.txt línea: 1579 columna: 41.
      1751         122  LOADSP                                  ; Archivo: LinkedSearchBinaryTree.txt línea: 1580 columna: 1.
      1752         125  STOREFP                                 ; Archivo: LinkedSearchBinaryTree.txt línea: 1581 columna: 1.
      1753         101  RMEM                                    ; Archivo: LinkedSearchBinaryTree.txt línea: 1582 columna: 1.
      1754           1  1                                       ; Archivo: LinkedSearchBinaryTree.txt línea: 1582 columna: 6.
      1755          80  LOAD                                    ; Archivo: LinkedSearchBinaryTree.txt línea: 1584 columna: 1.
      1756           3  3                                       ; Archivo: LinkedSearchBinaryTree.txt línea: 1584 columna: 6.
      1757         101  RMEM                                    ; Archivo: LinkedSearchBinaryTree.txt línea: 1585 columna: 1.
      1758           1  1                                       ; Archivo: LinkedSearchBinaryTree.txt línea: 1585 columna: 6.
      1759          32  SWAP                                    ; Archivo: LinkedSearchBinaryTree.txt línea: 1586 columna: 1.
      1760          80  LOAD                                    ; Archivo: LinkedSearchBinaryTree.txt línea: 1588 columna: 1.
      1761           4  4                                       ; Archivo: LinkedSearchBinaryTree.txt línea: 1588 columna: 6.
      1762          32  SWAP                                    ; Archivo: LinkedSearchBinaryTree.txt línea: 1589 columna: 1.
      1763          30  DUP                                     ; Archivo: LinkedSearchBinaryTree.txt línea: 1590 columna: 1.
      1764          82  LOADREF                                 ; Archivo: LinkedSearchBinaryTree.txt línea: 1591 columna: 1.
      1765           0  0                                       ; Archivo: LinkedSearchBinaryTree.txt línea: 1591 columna: 9.
      1766          82  LOADREF                                 ; Archivo: LinkedSearchBinaryTree.txt línea: 1592 columna: 1.
      1767          13  13                                      ; Archivo: LinkedSearchBinaryTree.txt línea: 1592 columna: 9.
      1768         100  CALL                                    ; Archivo: LinkedSearchBinaryTree.txt línea: 1593 columna: 1.
      1769          81  STORE                                   ; Archivo: LinkedSearchBinaryTree.txt línea: 1595 columna: 1.
      1770           0  0                                       ; Archivo: LinkedSearchBinaryTree.txt línea: 1595 columna: 7.
      1771           0  L_WHILE_21_removeMin_LinkedSearchBinaryTree: NOP; Archivo: LinkedSearchBinaryTree.txt línea: 1597 columna: 46.
      1772          80  LOAD                                    ; Archivo: LinkedSearchBinaryTree.txt línea: 1599 columna: 1.
      1773           3  3                                       ; Archivo: LinkedSearchBinaryTree.txt línea: 1599 columna: 6.
      1774         101  RMEM                                    ; Archivo: LinkedSearchBinaryTree.txt línea: 1600 columna: 1.
      1775           1  1                                       ; Archivo: LinkedSearchBinaryTree.txt línea: 1600 columna: 6.
      1776          32  SWAP                                    ; Archivo: LinkedSearchBinaryTree.txt línea: 1601 columna: 1.
      1777          80  LOAD                                    ; Archivo: LinkedSearchBinaryTree.txt línea: 1603 columna: 1.
      1778           3  3                                       ; Archivo: LinkedSearchBinaryTree.txt línea: 1603 columna: 6.
      1779         101  RMEM                                    ; Archivo: LinkedSearchBinaryTree.txt línea: 1604 columna: 1.
      1780           1  1                                       ; Archivo: LinkedSearchBinaryTree.txt línea: 1604 columna: 6.
      1781          32  SWAP                                    ; Archivo: LinkedSearchBinaryTree.txt línea: 1605 columna: 1.
      1782          80  LOAD                                    ; Archivo: LinkedSearchBinaryTree.txt línea: 1607 columna: 1.
      1783           0  0                                       ; Archivo: LinkedSearchBinaryTree.txt línea: 1607 columna: 6.
      1784          32  SWAP                                    ; Archivo: LinkedSearchBinaryTree.txt línea: 1608 columna: 1.
      1785          30  DUP                                     ; Archivo: LinkedSearchBinaryTree.txt línea: 1609 columna: 1.
      1786          82  LOADREF                                 ; Archivo: LinkedSearchBinaryTree.txt línea: 1610 columna: 1.
      1787           0  0                                       ; Archivo: LinkedSearchBinaryTree.txt línea: 1610 columna: 9.
      1788          82  LOADREF                                 ; Archivo: LinkedSearchBinaryTree.txt línea: 1611 columna: 1.
      1789          12  12                                      ; Archivo: LinkedSearchBinaryTree.txt línea: 1611 columna: 9.
      1790         100  CALL                                    ; Archivo: LinkedSearchBinaryTree.txt línea: 1612 columna: 1.
      1791          32  SWAP                                    ; Archivo: LinkedSearchBinaryTree.txt línea: 1613 columna: 1.
      1792          30  DUP                                     ; Archivo: LinkedSearchBinaryTree.txt línea: 1614 columna: 1.
      1793          82  LOADREF                                 ; Archivo: LinkedSearchBinaryTree.txt línea: 1615 columna: 1.
      1794           0  0                                       ; Archivo: LinkedSearchBinaryTree.txt línea: 1615 columna: 9.
      1795          82  LOADREF                                 ; Archivo: LinkedSearchBinaryTree.txt línea: 1616 columna: 1.
      1796           6  6                                       ; Archivo: LinkedSearchBinaryTree.txt línea: 1616 columna: 9.
      1797         100  CALL                                    ; Archivo: LinkedSearchBinaryTree.txt línea: 1617 columna: 1.
      1798          41  BF                                      ; Archivo: LinkedSearchBinaryTree.txt línea: 1618 columna: 1.
      1799        1818  L_ENDWHILE_21_removeMin_LinkedSearchBinaryTree; Archivo: LinkedSearchBinaryTree.txt línea: 1618 columna: 4.
      1800          80  LOAD                                    ; Archivo: LinkedSearchBinaryTree.txt línea: 1620 columna: 1.
      1801           3  3                                       ; Archivo: LinkedSearchBinaryTree.txt línea: 1620 columna: 6.
      1802         101  RMEM                                    ; Archivo: LinkedSearchBinaryTree.txt línea: 1621 columna: 1.
      1803           1  1                                       ; Archivo: LinkedSearchBinaryTree.txt línea: 1621 columna: 6.
      1804          32  SWAP                                    ; Archivo: LinkedSearchBinaryTree.txt línea: 1622 columna: 1.
      1805          80  LOAD                                    ; Archivo: LinkedSearchBinaryTree.txt línea: 1624 columna: 1.
      1806           0  0                                       ; Archivo: LinkedSearchBinaryTree.txt línea: 1624 columna: 6.
      1807          32  SWAP                                    ; Archivo: LinkedSearchBinaryTree.txt línea: 1625 columna: 1.
      1808          30  DUP                                     ; Archivo: LinkedSearchBinaryTree.txt línea: 1626 columna: 1.
      1809          82  LOADREF                                 ; Archivo: LinkedSearchBinaryTree.txt línea: 1627 columna: 1.
      1810           0  0                                       ; Archivo: LinkedSearchBinaryTree.txt línea: 1627 columna: 9.
      1811          82  LOADREF                                 ; Archivo: LinkedSearchBinaryTree.txt línea: 1628 columna: 1.
      1812          12  12                                      ; Archivo: LinkedSearchBinaryTree.txt línea: 1628 columna: 9.
      1813         100  CALL                                    ; Archivo: LinkedSearchBinaryTree.txt línea: 1629 columna: 1.
      1814          81  STORE                                   ; Archivo: LinkedSearchBinaryTree.txt línea: 1631 columna: 1.
      1815           0  0                                       ; Archivo: LinkedSearchBinaryTree.txt línea: 1631 columna: 7.
      1816          40  JUMP                                    ; Archivo: LinkedSearchBinaryTree.txt línea: 1632 columna: 1.
      1817        1771  L_WHILE_21_removeMin_LinkedSearchBinaryTree; Archivo: LinkedSearchBinaryTree.txt línea: 1632 columna: 6.
      1818           0  L_ENDWHILE_21_removeMin_LinkedSearchBinaryTree: NOP; Archivo: LinkedSearchBinaryTree.txt línea: 1633 columna: 49.
      1819          80  LOAD                                    ; Archivo: LinkedSearchBinaryTree.txt línea: 1635 columna: 1.
      1820           3  3                                       ; Archivo: LinkedSearchBinaryTree.txt línea: 1635 columna: 6.
      1821          80  LOAD                                    ; Archivo: LinkedSearchBinaryTree.txt línea: 1637 columna: 1.
      1822           3  3                                       ; Archivo: LinkedSearchBinaryTree.txt línea: 1637 columna: 6.
      1823         101  RMEM                                    ; Archivo: LinkedSearchBinaryTree.txt línea: 1638 columna: 1.
      1824           1  1                                       ; Archivo: LinkedSearchBinaryTree.txt línea: 1638 columna: 6.
      1825          32  SWAP                                    ; Archivo: LinkedSearchBinaryTree.txt línea: 1639 columna: 1.
      1826          80  LOAD                                    ; Archivo: LinkedSearchBinaryTree.txt línea: 1641 columna: 1.
      1827           0  0                                       ; Archivo: LinkedSearchBinaryTree.txt línea: 1641 columna: 6.
      1828          32  SWAP                                    ; Archivo: LinkedSearchBinaryTree.txt línea: 1642 columna: 1.
      1829          30  DUP                                     ; Archivo: LinkedSearchBinaryTree.txt línea: 1643 columna: 1.
      1830          82  LOADREF                                 ; Archivo: LinkedSearchBinaryTree.txt línea: 1644 columna: 1.
      1831           0  0                                       ; Archivo: LinkedSearchBinaryTree.txt línea: 1644 columna: 9.
      1832          82  LOADREF                                 ; Archivo: LinkedSearchBinaryTree.txt línea: 1645 columna: 1.
      1833          12  12                                      ; Archivo: LinkedSearchBinaryTree.txt línea: 1645 columna: 9.
      1834         100  CALL                                    ; Archivo: LinkedSearchBinaryTree.txt línea: 1646 columna: 1.
      1835          32  SWAP                                    ; Archivo: LinkedSearchBinaryTree.txt línea: 1647 columna: 1.
      1836          30  DUP                                     ; Archivo: LinkedSearchBinaryTree.txt línea: 1648 columna: 1.
      1837          82  LOADREF                                 ; Archivo: LinkedSearchBinaryTree.txt línea: 1649 columna: 1.
      1838           0  0                                       ; Archivo: LinkedSearchBinaryTree.txt línea: 1649 columna: 9.
      1839          82  LOADREF                                 ; Archivo: LinkedSearchBinaryTree.txt línea: 1650 columna: 1.
      1840          21  21                                      ; Archivo: LinkedSearchBinaryTree.txt línea: 1650 columna: 9.
      1841         100  CALL                                    ; Archivo: LinkedSearchBinaryTree.txt línea: 1651 columna: 1.
      1842          80  LOAD                                    ; Archivo: LinkedSearchBinaryTree.txt línea: 1653 columna: 1.
      1843           0  0                                       ; Archivo: LinkedSearchBinaryTree.txt línea: 1653 columna: 6.
      1844         101  RMEM                                    ; Archivo: LinkedSearchBinaryTree.txt línea: 1655 columna: 1.
      1845           1  1                                       ; Archivo: LinkedSearchBinaryTree.txt línea: 1655 columna: 6.
      1846          32  SWAP                                    ; Archivo: LinkedSearchBinaryTree.txt línea: 1656 columna: 1.
      1847          30  DUP                                     ; Archivo: LinkedSearchBinaryTree.txt línea: 1658 columna: 1.
      1848          82  LOADREF                                 ; Archivo: LinkedSearchBinaryTree.txt línea: 1659 columna: 1.
      1849           0  0                                       ; Archivo: LinkedSearchBinaryTree.txt línea: 1659 columna: 9.
      1850          82  LOADREF                                 ; Archivo: LinkedSearchBinaryTree.txt línea: 1660 columna: 1.
      1851           5  5                                       ; Archivo: LinkedSearchBinaryTree.txt línea: 1660 columna: 9.
      1852         100  CALL                                    ; Archivo: LinkedSearchBinaryTree.txt línea: 1661 columna: 1.
      1853          81  STORE                                   ; Archivo: LinkedSearchBinaryTree.txt línea: 1664 columna: 1.
      1854           5  5                                       ; Archivo: LinkedSearchBinaryTree.txt línea: 1664 columna: 7.
      1855         102  FMEM                                    ; Archivo: LinkedSearchBinaryTree.txt línea: 1665 columna: 1.
      1856           1  1                                       ; Archivo: LinkedSearchBinaryTree.txt línea: 1665 columna: 6.
      1857         125  STOREFP                                 ; Archivo: LinkedSearchBinaryTree.txt línea: 1666 columna: 1.
      1858         103  RET                                     ; Archivo: LinkedSearchBinaryTree.txt línea: 1667 columna: 1.
      1859           2  2                                       ; Archivo: LinkedSearchBinaryTree.txt línea: 1667 columna: 5.
      1860         102  FMEM                                    ; Archivo: LinkedSearchBinaryTree.txt línea: 1668 columna: 1.
      1861           1  1                                       ; Archivo: LinkedSearchBinaryTree.txt línea: 1668 columna: 6.
      1862         125  STOREFP                                 ; Archivo: LinkedSearchBinaryTree.txt línea: 1669 columna: 1.
      1863         103  RET                                     ; Archivo: LinkedSearchBinaryTree.txt línea: 1670 columna: 1.
      1864           2  2                                       ; Archivo: LinkedSearchBinaryTree.txt línea: 1670 columna: 5.
      1865         124  L_CTOR_Node_Node: LOADFP                ; Archivo: LinkedSearchBinaryTree.txt línea: 1675 columna: 19.
      1866         122  LOADSP                                  ; Archivo: LinkedSearchBinaryTree.txt línea: 1676 columna: 1.
      1867         125  STOREFP                                 ; Archivo: LinkedSearchBinaryTree.txt línea: 1677 columna: 1.
      1868          80  LOAD                                    ; Archivo: LinkedSearchBinaryTree.txt línea: 1679 columna: 1.
      1869           3  3                                       ; Archivo: LinkedSearchBinaryTree.txt línea: 1679 columna: 6.
      1870          80  LOAD                                    ; Archivo: LinkedSearchBinaryTree.txt línea: 1681 columna: 1.
      1871           4  4                                       ; Archivo: LinkedSearchBinaryTree.txt línea: 1681 columna: 6.
      1872          32  SWAP                                    ; Archivo: LinkedSearchBinaryTree.txt línea: 1682 columna: 1.
      1873          30  DUP                                     ; Archivo: LinkedSearchBinaryTree.txt línea: 1683 columna: 1.
      1874          82  LOADREF                                 ; Archivo: LinkedSearchBinaryTree.txt línea: 1684 columna: 1.
      1875           0  0                                       ; Archivo: LinkedSearchBinaryTree.txt línea: 1684 columna: 9.
      1876          82  LOADREF                                 ; Archivo: LinkedSearchBinaryTree.txt línea: 1685 columna: 1.
      1877           3  3                                       ; Archivo: LinkedSearchBinaryTree.txt línea: 1685 columna: 9.
      1878         100  CALL                                    ; Archivo: LinkedSearchBinaryTree.txt línea: 1686 columna: 1.
      1879          80  LOAD                                    ; Archivo: LinkedSearchBinaryTree.txt línea: 1688 columna: 1.
      1880           3  3                                       ; Archivo: LinkedSearchBinaryTree.txt línea: 1688 columna: 6.
      1881           1  PUSH                                    ; Archivo: LinkedSearchBinaryTree.txt línea: 1690 columna: 1.
      1882           0  0                                       ; Archivo: LinkedSearchBinaryTree.txt línea: 1690 columna: 6.
      1883          32  SWAP                                    ; Archivo: LinkedSearchBinaryTree.txt línea: 1691 columna: 1.
      1884          30  DUP                                     ; Archivo: LinkedSearchBinaryTree.txt línea: 1692 columna: 1.
      1885          82  LOADREF                                 ; Archivo: LinkedSearchBinaryTree.txt línea: 1693 columna: 1.
      1886           0  0                                       ; Archivo: LinkedSearchBinaryTree.txt línea: 1693 columna: 9.
      1887          82  LOADREF                                 ; Archivo: LinkedSearchBinaryTree.txt línea: 1694 columna: 1.
      1888           1  1                                       ; Archivo: LinkedSearchBinaryTree.txt línea: 1694 columna: 9.
      1889         100  CALL                                    ; Archivo: LinkedSearchBinaryTree.txt línea: 1695 columna: 1.
      1890          80  LOAD                                    ; Archivo: LinkedSearchBinaryTree.txt línea: 1697 columna: 1.
      1891           3  3                                       ; Archivo: LinkedSearchBinaryTree.txt línea: 1697 columna: 6.
      1892           1  PUSH                                    ; Archivo: LinkedSearchBinaryTree.txt línea: 1699 columna: 1.
      1893           0  0                                       ; Archivo: LinkedSearchBinaryTree.txt línea: 1699 columna: 6.
      1894          32  SWAP                                    ; Archivo: LinkedSearchBinaryTree.txt línea: 1700 columna: 1.
      1895          30  DUP                                     ; Archivo: LinkedSearchBinaryTree.txt línea: 1701 columna: 1.
      1896          82  LOADREF                                 ; Archivo: LinkedSearchBinaryTree.txt línea: 1702 columna: 1.
      1897           0  0                                       ; Archivo: LinkedSearchBinaryTree.txt línea: 1702 columna: 9.
      1898          82  LOADREF                                 ; Archivo: LinkedSearchBinaryTree.txt línea: 1703 columna: 1.
      1899           2  2                                       ; Archivo: LinkedSearchBinaryTree.txt línea: 1703 columna: 9.
      1900         100  CALL                                    ; Archivo: LinkedSearchBinaryTree.txt línea: 1704 columna: 1.
      1901          80  LOAD                                    ; Archivo: LinkedSearchBinaryTree.txt línea: 1706 columna: 1.
      1902           3  3                                       ; Archivo: LinkedSearchBinaryTree.txt línea: 1706 columna: 6.
      1903           1  PUSH                                    ; Archivo: LinkedSearchBinaryTree.txt línea: 1708 columna: 1.
      1904           0  0                                       ; Archivo: LinkedSearchBinaryTree.txt línea: 1708 columna: 6.
      1905          32  SWAP                                    ; Archivo: LinkedSearchBinaryTree.txt línea: 1709 columna: 1.
      1906          30  DUP                                     ; Archivo: LinkedSearchBinaryTree.txt línea: 1710 columna: 1.
      1907          82  LOADREF                                 ; Archivo: LinkedSearchBinaryTree.txt línea: 1711 columna: 1.
      1908           0  0                                       ; Archivo: LinkedSearchBinaryTree.txt línea: 1711 columna: 9.
      1909          82  LOADREF                                 ; Archivo: LinkedSearchBinaryTree.txt línea: 1712 columna: 1.
      1910           0  0                                       ; Archivo: LinkedSearchBinaryTree.txt línea: 1712 columna: 9.
      1911         100  CALL                                    ; Archivo: LinkedSearchBinaryTree.txt línea: 1713 columna: 1.
      1912         125  STOREFP                                 ; Archivo: LinkedSearchBinaryTree.txt línea: 1714 columna: 1.
      1913         103  RET                                     ; Archivo: LinkedSearchBinaryTree.txt línea: 1715 columna: 1.
      1914           2  2                                       ; Archivo: LinkedSearchBinaryTree.txt línea: 1715 columna: 5.
      1915         124  L_MET_Node_setParent: LOADFP            ; Archivo: LinkedSearchBinaryTree.txt línea: 1718 columna: 23.
      1916         122  LOADSP                                  ; Archivo: LinkedSearchBinaryTree.txt línea: 1719 columna: 1.
      1917         125  STOREFP                                 ; Archivo: LinkedSearchBinaryTree.txt línea: 1720 columna: 1.
      1918          80  LOAD                                    ; Archivo: LinkedSearchBinaryTree.txt línea: 1722 columna: 1.
      1919           4  4                                       ; Archivo: LinkedSearchBinaryTree.txt línea: 1722 columna: 6.
      1920          80  LOAD                                    ; Archivo: LinkedSearchBinaryTree.txt línea: 1724 columna: 1.
      1921           3  3                                       ; Archivo: LinkedSearchBinaryTree.txt línea: 1724 columna: 6.
      1922          32  SWAP                                    ; Archivo: LinkedSearchBinaryTree.txt línea: 1725 columna: 1.
      1923          83  STOREREF                                ; Archivo: LinkedSearchBinaryTree.txt línea: 1726 columna: 1.
      1924           2  2                                       ; Archivo: LinkedSearchBinaryTree.txt línea: 1726 columna: 10.
      1925         125  STOREFP                                 ; Archivo: LinkedSearchBinaryTree.txt línea: 1727 columna: 1.
      1926         103  RET                                     ; Archivo: LinkedSearchBinaryTree.txt línea: 1728 columna: 1.
      1927           2  2                                       ; Archivo: LinkedSearchBinaryTree.txt línea: 1728 columna: 5.
      1928         124  L_MET_Node_setLeft: LOADFP              ; Archivo: LinkedSearchBinaryTree.txt línea: 1731 columna: 21.
      1929         122  LOADSP                                  ; Archivo: LinkedSearchBinaryTree.txt línea: 1732 columna: 1.
      1930         125  STOREFP                                 ; Archivo: LinkedSearchBinaryTree.txt línea: 1733 columna: 1.
      1931          80  LOAD                                    ; Archivo: LinkedSearchBinaryTree.txt línea: 1735 columna: 1.
      1932           4  4                                       ; Archivo: LinkedSearchBinaryTree.txt línea: 1735 columna: 6.
      1933          80  LOAD                                    ; Archivo: LinkedSearchBinaryTree.txt línea: 1737 columna: 1.
      1934           3  3                                       ; Archivo: LinkedSearchBinaryTree.txt línea: 1737 columna: 6.
      1935          32  SWAP                                    ; Archivo: LinkedSearchBinaryTree.txt línea: 1738 columna: 1.
      1936          83  STOREREF                                ; Archivo: LinkedSearchBinaryTree.txt línea: 1739 columna: 1.
      1937           4  4                                       ; Archivo: LinkedSearchBinaryTree.txt línea: 1739 columna: 10.
      1938         125  STOREFP                                 ; Archivo: LinkedSearchBinaryTree.txt línea: 1740 columna: 1.
      1939         103  RET                                     ; Archivo: LinkedSearchBinaryTree.txt línea: 1741 columna: 1.
      1940           2  2                                       ; Archivo: LinkedSearchBinaryTree.txt línea: 1741 columna: 5.
      1941         124  L_MET_Node_setRight: LOADFP             ; Archivo: LinkedSearchBinaryTree.txt línea: 1744 columna: 22.
      1942         122  LOADSP                                  ; Archivo: LinkedSearchBinaryTree.txt línea: 1745 columna: 1.
      1943         125  STOREFP                                 ; Archivo: LinkedSearchBinaryTree.txt línea: 1746 columna: 1.
      1944          80  LOAD                                    ; Archivo: LinkedSearchBinaryTree.txt línea: 1748 columna: 1.
      1945           4  4                                       ; Archivo: LinkedSearchBinaryTree.txt línea: 1748 columna: 6.
      1946          80  LOAD                                    ; Archivo: LinkedSearchBinaryTree.txt línea: 1750 columna: 1.
      1947           3  3                                       ; Archivo: LinkedSearchBinaryTree.txt línea: 1750 columna: 6.
      1948          32  SWAP                                    ; Archivo: LinkedSearchBinaryTree.txt línea: 1751 columna: 1.
      1949          83  STOREREF                                ; Archivo: LinkedSearchBinaryTree.txt línea: 1752 columna: 1.
      1950           3  3                                       ; Archivo: LinkedSearchBinaryTree.txt línea: 1752 columna: 10.
      1951         125  STOREFP                                 ; Archivo: LinkedSearchBinaryTree.txt línea: 1753 columna: 1.
      1952         103  RET                                     ; Archivo: LinkedSearchBinaryTree.txt línea: 1754 columna: 1.
      1953           2  2                                       ; Archivo: LinkedSearchBinaryTree.txt línea: 1754 columna: 5.
      1954         124  L_MET_Node_setEntry: LOADFP             ; Archivo: LinkedSearchBinaryTree.txt línea: 1757 columna: 22.
      1955         122  LOADSP                                  ; Archivo: LinkedSearchBinaryTree.txt línea: 1758 columna: 1.
      1956         125  STOREFP                                 ; Archivo: LinkedSearchBinaryTree.txt línea: 1759 columna: 1.
      1957          80  LOAD                                    ; Archivo: LinkedSearchBinaryTree.txt línea: 1761 columna: 1.
      1958           4  4                                       ; Archivo: LinkedSearchBinaryTree.txt línea: 1761 columna: 6.
      1959          80  LOAD                                    ; Archivo: LinkedSearchBinaryTree.txt línea: 1763 columna: 1.
      1960           3  3                                       ; Archivo: LinkedSearchBinaryTree.txt línea: 1763 columna: 6.
      1961          32  SWAP                                    ; Archivo: LinkedSearchBinaryTree.txt línea: 1764 columna: 1.
      1962          83  STOREREF                                ; Archivo: LinkedSearchBinaryTree.txt línea: 1765 columna: 1.
      1963           1  1                                       ; Archivo: LinkedSearchBinaryTree.txt línea: 1765 columna: 10.
      1964         125  STOREFP                                 ; Archivo: LinkedSearchBinaryTree.txt línea: 1766 columna: 1.
      1965         103  RET                                     ; Archivo: LinkedSearchBinaryTree.txt línea: 1767 columna: 1.
      1966           2  2                                       ; Archivo: LinkedSearchBinaryTree.txt línea: 1767 columna: 5.
      1967         124  L_MET_Node_getParent: LOADFP            ; Archivo: LinkedSearchBinaryTree.txt línea: 1770 columna: 23.
      1968         122  LOADSP                                  ; Archivo: LinkedSearchBinaryTree.txt línea: 1771 columna: 1.
      1969         125  STOREFP                                 ; Archivo: LinkedSearchBinaryTree.txt línea: 1772 columna: 1.
      1970          80  LOAD                                    ; Archivo: LinkedSearchBinaryTree.txt línea: 1774 columna: 1.
      1971           3  3                                       ; Archivo: LinkedSearchBinaryTree.txt línea: 1774 columna: 6.
      1972          82  LOADREF                                 ; Archivo: LinkedSearchBinaryTree.txt línea: 1775 columna: 1.
      1973           2  2                                       ; Archivo: LinkedSearchBinaryTree.txt línea: 1775 columna: 9.
      1974          81  STORE                                   ; Archivo: LinkedSearchBinaryTree.txt línea: 1778 columna: 1.
      1975           4  4                                       ; Archivo: LinkedSearchBinaryTree.txt línea: 1778 columna: 7.
      1976         125  STOREFP                                 ; Archivo: LinkedSearchBinaryTree.txt línea: 1779 columna: 1.
      1977         103  RET                                     ; Archivo: LinkedSearchBinaryTree.txt línea: 1780 columna: 1.
      1978           1  1                                       ; Archivo: LinkedSearchBinaryTree.txt línea: 1780 columna: 5.
      1979         125  STOREFP                                 ; Archivo: LinkedSearchBinaryTree.txt línea: 1781 columna: 1.
      1980         103  RET                                     ; Archivo: LinkedSearchBinaryTree.txt línea: 1782 columna: 1.
      1981           1  1                                       ; Archivo: LinkedSearchBinaryTree.txt línea: 1782 columna: 5.
      1982         124  L_MET_Node_getEntry: LOADFP             ; Archivo: LinkedSearchBinaryTree.txt línea: 1785 columna: 22.
      1983         122  LOADSP                                  ; Archivo: LinkedSearchBinaryTree.txt línea: 1786 columna: 1.
      1984         125  STOREFP                                 ; Archivo: LinkedSearchBinaryTree.txt línea: 1787 columna: 1.
      1985          80  LOAD                                    ; Archivo: LinkedSearchBinaryTree.txt línea: 1789 columna: 1.
      1986           3  3                                       ; Archivo: LinkedSearchBinaryTree.txt línea: 1789 columna: 6.
      1987          82  LOADREF                                 ; Archivo: LinkedSearchBinaryTree.txt línea: 1790 columna: 1.
      1988           1  1                                       ; Archivo: LinkedSearchBinaryTree.txt línea: 1790 columna: 9.
      1989          81  STORE                                   ; Archivo: LinkedSearchBinaryTree.txt línea: 1793 columna: 1.
      1990           4  4                                       ; Archivo: LinkedSearchBinaryTree.txt línea: 1793 columna: 7.
      1991         125  STOREFP                                 ; Archivo: LinkedSearchBinaryTree.txt línea: 1794 columna: 1.
      1992         103  RET                                     ; Archivo: LinkedSearchBinaryTree.txt línea: 1795 columna: 1.
      1993           1  1                                       ; Archivo: LinkedSearchBinaryTree.txt línea: 1795 columna: 5.
      1994         125  STOREFP                                 ; Archivo: LinkedSearchBinaryTree.txt línea: 1796 columna: 1.
      1995         103  RET                                     ; Archivo: LinkedSearchBinaryTree.txt línea: 1797 columna: 1.
      1996           1  1                                       ; Archivo: LinkedSearchBinaryTree.txt línea: 1797 columna: 5.
      1997         124  L_MET_Node_getLeft: LOADFP              ; Archivo: LinkedSearchBinaryTree.txt línea: 1800 columna: 21.
      1998         122  LOADSP                                  ; Archivo: LinkedSearchBinaryTree.txt línea: 1801 columna: 1.
      1999         125  STOREFP                                 ; Archivo: LinkedSearchBinaryTree.txt línea: 1802 columna: 1.
      2000          80  LOAD                                    ; Archivo: LinkedSearchBinaryTree.txt línea: 1804 columna: 1.
      2001           3  3                                       ; Archivo: LinkedSearchBinaryTree.txt línea: 1804 columna: 6.
      2002          82  LOADREF                                 ; Archivo: LinkedSearchBinaryTree.txt línea: 1805 columna: 1.
      2003           4  4                                       ; Archivo: LinkedSearchBinaryTree.txt línea: 1805 columna: 9.
      2004          81  STORE                                   ; Archivo: LinkedSearchBinaryTree.txt línea: 1808 columna: 1.
      2005           4  4                                       ; Archivo: LinkedSearchBinaryTree.txt línea: 1808 columna: 7.
      2006         125  STOREFP                                 ; Archivo: LinkedSearchBinaryTree.txt línea: 1809 columna: 1.
      2007         103  RET                                     ; Archivo: LinkedSearchBinaryTree.txt línea: 1810 columna: 1.
      2008           1  1                                       ; Archivo: LinkedSearchBinaryTree.txt línea: 1810 columna: 5.
      2009         125  STOREFP                                 ; Archivo: LinkedSearchBinaryTree.txt línea: 1811 columna: 1.
      2010         103  RET                                     ; Archivo: LinkedSearchBinaryTree.txt línea: 1812 columna: 1.
      2011           1  1                                       ; Archivo: LinkedSearchBinaryTree.txt línea: 1812 columna: 5.
      2012         124  L_MET_Node_getRight: LOADFP             ; Archivo: LinkedSearchBinaryTree.txt línea: 1815 columna: 22.
      2013         122  LOADSP                                  ; Archivo: LinkedSearchBinaryTree.txt línea: 1816 columna: 1.
      2014         125  STOREFP                                 ; Archivo: LinkedSearchBinaryTree.txt línea: 1817 columna: 1.
      2015          80  LOAD                                    ; Archivo: LinkedSearchBinaryTree.txt línea: 1819 columna: 1.
      2016           3  3                                       ; Archivo: LinkedSearchBinaryTree.txt línea: 1819 columna: 6.
      2017          82  LOADREF                                 ; Archivo: LinkedSearchBinaryTree.txt línea: 1820 columna: 1.
      2018           3  3                                       ; Archivo: LinkedSearchBinaryTree.txt línea: 1820 columna: 9.
      2019          81  STORE                                   ; Archivo: LinkedSearchBinaryTree.txt línea: 1823 columna: 1.
      2020           4  4                                       ; Archivo: LinkedSearchBinaryTree.txt línea: 1823 columna: 7.
      2021         125  STOREFP                                 ; Archivo: LinkedSearchBinaryTree.txt línea: 1824 columna: 1.
      2022         103  RET                                     ; Archivo: LinkedSearchBinaryTree.txt línea: 1825 columna: 1.
      2023           1  1                                       ; Archivo: LinkedSearchBinaryTree.txt línea: 1825 columna: 5.
      2024         125  STOREFP                                 ; Archivo: LinkedSearchBinaryTree.txt línea: 1826 columna: 1.
      2025         103  RET                                     ; Archivo: LinkedSearchBinaryTree.txt línea: 1827 columna: 1.
      2026           1  1                                       ; Archivo: LinkedSearchBinaryTree.txt línea: 1827 columna: 5.
      2027         124  L_CTOR_Entry_Entry: LOADFP              ; Archivo: LinkedSearchBinaryTree.txt línea: 1832 columna: 21.
      2028         122  LOADSP                                  ; Archivo: LinkedSearchBinaryTree.txt línea: 1833 columna: 1.
      2029         125  STOREFP                                 ; Archivo: LinkedSearchBinaryTree.txt línea: 1834 columna: 1.
      2030          80  LOAD                                    ; Archivo: LinkedSearchBinaryTree.txt línea: 1836 columna: 1.
      2031           5  5                                       ; Archivo: LinkedSearchBinaryTree.txt línea: 1836 columna: 6.
      2032          80  LOAD                                    ; Archivo: LinkedSearchBinaryTree.txt línea: 1838 columna: 1.
      2033           3  3                                       ; Archivo: LinkedSearchBinaryTree.txt línea: 1838 columna: 6.
      2034          32  SWAP                                    ; Archivo: LinkedSearchBinaryTree.txt línea: 1839 columna: 1.
      2035          83  STOREREF                                ; Archivo: LinkedSearchBinaryTree.txt línea: 1840 columna: 1.
      2036           2  2                                       ; Archivo: LinkedSearchBinaryTree.txt línea: 1840 columna: 10.
      2037          80  LOAD                                    ; Archivo: LinkedSearchBinaryTree.txt línea: 1842 columna: 1.
      2038           4  4                                       ; Archivo: LinkedSearchBinaryTree.txt línea: 1842 columna: 6.
      2039          80  LOAD                                    ; Archivo: LinkedSearchBinaryTree.txt línea: 1844 columna: 1.
      2040           3  3                                       ; Archivo: LinkedSearchBinaryTree.txt línea: 1844 columna: 6.
      2041          32  SWAP                                    ; Archivo: LinkedSearchBinaryTree.txt línea: 1845 columna: 1.
      2042          83  STOREREF                                ; Archivo: LinkedSearchBinaryTree.txt línea: 1846 columna: 1.
      2043           1  1                                       ; Archivo: LinkedSearchBinaryTree.txt línea: 1846 columna: 10.
      2044         125  STOREFP                                 ; Archivo: LinkedSearchBinaryTree.txt línea: 1847 columna: 1.
      2045         103  RET                                     ; Archivo: LinkedSearchBinaryTree.txt línea: 1848 columna: 1.
      2046           3  3                                       ; Archivo: LinkedSearchBinaryTree.txt línea: 1848 columna: 5.
      2047         124  L_MET_Entry_getKey: LOADFP              ; Archivo: LinkedSearchBinaryTree.txt línea: 1851 columna: 21.
      2048         122  LOADSP                                  ; Archivo: LinkedSearchBinaryTree.txt línea: 1852 columna: 1.
      2049         125  STOREFP                                 ; Archivo: LinkedSearchBinaryTree.txt línea: 1853 columna: 1.
      2050          80  LOAD                                    ; Archivo: LinkedSearchBinaryTree.txt línea: 1855 columna: 1.
      2051           3  3                                       ; Archivo: LinkedSearchBinaryTree.txt línea: 1855 columna: 6.
      2052          82  LOADREF                                 ; Archivo: LinkedSearchBinaryTree.txt línea: 1856 columna: 1.
      2053           2  2                                       ; Archivo: LinkedSearchBinaryTree.txt línea: 1856 columna: 9.
      2054          81  STORE                                   ; Archivo: LinkedSearchBinaryTree.txt línea: 1859 columna: 1.
      2055           4  4                                       ; Archivo: LinkedSearchBinaryTree.txt línea: 1859 columna: 7.
      2056         125  STOREFP                                 ; Archivo: LinkedSearchBinaryTree.txt línea: 1860 columna: 1.
      2057         103  RET                                     ; Archivo: LinkedSearchBinaryTree.txt línea: 1861 columna: 1.
      2058           1  1                                       ; Archivo: LinkedSearchBinaryTree.txt línea: 1861 columna: 5.
      2059         125  STOREFP                                 ; Archivo: LinkedSearchBinaryTree.txt línea: 1862 columna: 1.
      2060         103  RET                                     ; Archivo: LinkedSearchBinaryTree.txt línea: 1863 columna: 1.
      2061           1  1                                       ; Archivo: LinkedSearchBinaryTree.txt línea: 1863 columna: 5.
      2062         124  L_MET_Entry_getElement: LOADFP          ; Archivo: LinkedSearchBinaryTree.txt línea: 1866 columna: 25.
      2063         122  LOADSP                                  ; Archivo: LinkedSearchBinaryTree.txt línea: 1867 columna: 1.
      2064         125  STOREFP                                 ; Archivo: LinkedSearchBinaryTree.txt línea: 1868 columna: 1.
      2065          80  LOAD                                    ; Archivo: LinkedSearchBinaryTree.txt línea: 1870 columna: 1.
      2066           3  3                                       ; Archivo: LinkedSearchBinaryTree.txt línea: 1870 columna: 6.
      2067          82  LOADREF                                 ; Archivo: LinkedSearchBinaryTree.txt línea: 1871 columna: 1.
      2068           1  1                                       ; Archivo: LinkedSearchBinaryTree.txt línea: 1871 columna: 9.
      2069          81  STORE                                   ; Archivo: LinkedSearchBinaryTree.txt línea: 1874 columna: 1.
      2070           4  4                                       ; Archivo: LinkedSearchBinaryTree.txt línea: 1874 columna: 7.
      2071         125  STOREFP                                 ; Archivo: LinkedSearchBinaryTree.txt línea: 1875 columna: 1.
      2072         103  RET                                     ; Archivo: LinkedSearchBinaryTree.txt línea: 1876 columna: 1.
      2073           1  1                                       ; Archivo: LinkedSearchBinaryTree.txt línea: 1876 columna: 5.
      2074         125  STOREFP                                 ; Archivo: LinkedSearchBinaryTree.txt línea: 1877 columna: 1.
      2075         103  RET                                     ; Archivo: LinkedSearchBinaryTree.txt línea: 1878 columna: 1.
      2076           1  1                                       ; Archivo: LinkedSearchBinaryTree.txt línea: 1878 columna: 5.
      2077         124  L_MET_Entry_setElement: LOADFP          ; Archivo: LinkedSearchBinaryTree.txt línea: 1881 columna: 25.
      2078         122  LOADSP                                  ; Archivo: LinkedSearchBinaryTree.txt línea: 1882 columna: 1.
      2079         125  STOREFP                                 ; Archivo: LinkedSearchBinaryTree.txt línea: 1883 columna: 1.
      2080          80  LOAD                                    ; Archivo: LinkedSearchBinaryTree.txt línea: 1885 columna: 1.
      2081           4  4                                       ; Archivo: LinkedSearchBinaryTree.txt línea: 1885 columna: 6.
      2082          80  LOAD                                    ; Archivo: LinkedSearchBinaryTree.txt línea: 1887 columna: 1.
      2083           3  3                                       ; Archivo: LinkedSearchBinaryTree.txt línea: 1887 columna: 6.
      2084          32  SWAP                                    ; Archivo: LinkedSearchBinaryTree.txt línea: 1888 columna: 1.
      2085          83  STOREREF                                ; Archivo: LinkedSearchBinaryTree.txt línea: 1889 columna: 1.
      2086           1  1                                       ; Archivo: LinkedSearchBinaryTree.txt línea: 1889 columna: 10.
      2087         125  STOREFP                                 ; Archivo: LinkedSearchBinaryTree.txt línea: 1890 columna: 1.
      2088         103  RET                                     ; Archivo: LinkedSearchBinaryTree.txt línea: 1891 columna: 1.
      2089           2  2                                       ; Archivo: LinkedSearchBinaryTree.txt línea: 1891 columna: 5.
      2090         124  L_CTOR_Main_Main: LOADFP                ; Archivo: LinkedSearchBinaryTree.txt línea: 1896 columna: 19.
      2091         122  LOADSP                                  ; Archivo: LinkedSearchBinaryTree.txt línea: 1897 columna: 1.
      2092         125  STOREFP                                 ; Archivo: LinkedSearchBinaryTree.txt línea: 1898 columna: 1.
      2093         125  STOREFP                                 ; Archivo: LinkedSearchBinaryTree.txt línea: 1899 columna: 1.
      2094         103  RET                                     ; Archivo: LinkedSearchBinaryTree.txt línea: 1900 columna: 1.
      2095           1  1                                       ; Archivo: LinkedSearchBinaryTree.txt línea: 1900 columna: 5.
      2096         124  L_MET_Main_insert: LOADFP               ; Archivo: LinkedSearchBinaryTree.txt línea: 1903 columna: 20.
      2097         122  LOADSP                                  ; Archivo: LinkedSearchBinaryTree.txt línea: 1904 columna: 1.
      2098         125  STOREFP                                 ; Archivo: LinkedSearchBinaryTree.txt línea: 1905 columna: 1.
      2099          80  LOAD                                    ; Archivo: LinkedSearchBinaryTree.txt línea: 1907 columna: 1.
      2100           6  6                                       ; Archivo: LinkedSearchBinaryTree.txt línea: 1907 columna: 6.
      2101         101  RMEM                                    ; Archivo: LinkedSearchBinaryTree.txt línea: 1909 columna: 1.
      2102           1  1                                       ; Archivo: LinkedSearchBinaryTree.txt línea: 1909 columna: 6.
      2103          32  SWAP                                    ; Archivo: LinkedSearchBinaryTree.txt línea: 1910 columna: 1.
      2104          80  LOAD                                    ; Archivo: LinkedSearchBinaryTree.txt línea: 1912 columna: 1.
      2105           5  5                                       ; Archivo: LinkedSearchBinaryTree.txt línea: 1912 columna: 6.
      2106          32  SWAP                                    ; Archivo: LinkedSearchBinaryTree.txt línea: 1913 columna: 1.
      2107          80  LOAD                                    ; Archivo: LinkedSearchBinaryTree.txt línea: 1915 columna: 1.
      2108           4  4                                       ; Archivo: LinkedSearchBinaryTree.txt línea: 1915 columna: 6.
      2109          32  SWAP                                    ; Archivo: LinkedSearchBinaryTree.txt línea: 1916 columna: 1.
      2110          30  DUP                                     ; Archivo: LinkedSearchBinaryTree.txt línea: 1918 columna: 1.
      2111          82  LOADREF                                 ; Archivo: LinkedSearchBinaryTree.txt línea: 1919 columna: 1.
      2112           0  0                                       ; Archivo: LinkedSearchBinaryTree.txt línea: 1919 columna: 9.
      2113          82  LOADREF                                 ; Archivo: LinkedSearchBinaryTree.txt línea: 1920 columna: 1.
      2114          16  16                                      ; Archivo: LinkedSearchBinaryTree.txt línea: 1920 columna: 9.
      2115         100  CALL                                    ; Archivo: LinkedSearchBinaryTree.txt línea: 1921 columna: 1.
      2116          31  POP                                     ; Archivo: LinkedSearchBinaryTree.txt línea: 1922 columna: 1.
      2117         101  RMEM                                    ; Archivo: LinkedSearchBinaryTree.txt línea: 1924 columna: 1.
      2118           1  1                                       ; Archivo: LinkedSearchBinaryTree.txt línea: 1924 columna: 6.
      2119          80  LOAD                                    ; Archivo: LinkedSearchBinaryTree.txt línea: 1927 columna: 1.
      2120           5  5                                       ; Archivo: LinkedSearchBinaryTree.txt línea: 1927 columna: 6.
      2121          32  SWAP                                    ; Archivo: LinkedSearchBinaryTree.txt línea: 1928 columna: 1.
      2122           1  PUSH                                    ; Archivo: LinkedSearchBinaryTree.txt línea: 1930 columna: 1.
      2123          26  L_MET_System_printI                     ; Archivo: LinkedSearchBinaryTree.txt línea: 1930 columna: 6.
      2124         100  CALL                                    ; Archivo: LinkedSearchBinaryTree.txt línea: 1931 columna: 1.
      2125         101  RMEM                                    ; Archivo: LinkedSearchBinaryTree.txt línea: 1933 columna: 1.
      2126           1  1                                       ; Archivo: LinkedSearchBinaryTree.txt línea: 1933 columna: 6.
      2127           1  PUSH                                    ; Archivo: LinkedSearchBinaryTree.txt línea: 1938 columna: 1.
      2128        2849  lString22_insert_Main                   ; Archivo: LinkedSearchBinaryTree.txt línea: 1938 columna: 6.
      2129          32  SWAP                                    ; Archivo: LinkedSearchBinaryTree.txt línea: 1939 columna: 1.
      2130           1  PUSH                                    ; Archivo: LinkedSearchBinaryTree.txt línea: 1941 columna: 1.
      2131          56  L_MET_System_printS                     ; Archivo: LinkedSearchBinaryTree.txt línea: 1941 columna: 6.
      2132         100  CALL                                    ; Archivo: LinkedSearchBinaryTree.txt línea: 1942 columna: 1.
      2133         101  RMEM                                    ; Archivo: LinkedSearchBinaryTree.txt línea: 1944 columna: 1.
      2134           1  1                                       ; Archivo: LinkedSearchBinaryTree.txt línea: 1944 columna: 6.
      2135          80  LOAD                                    ; Archivo: LinkedSearchBinaryTree.txt línea: 1947 columna: 1.
      2136           4  4                                       ; Archivo: LinkedSearchBinaryTree.txt línea: 1947 columna: 6.
      2137          32  SWAP                                    ; Archivo: LinkedSearchBinaryTree.txt línea: 1948 columna: 1.
      2138           1  PUSH                                    ; Archivo: LinkedSearchBinaryTree.txt línea: 1950 columna: 1.
      2139          56  L_MET_System_printS                     ; Archivo: LinkedSearchBinaryTree.txt línea: 1950 columna: 6.
      2140         100  CALL                                    ; Archivo: LinkedSearchBinaryTree.txt línea: 1951 columna: 1.
      2141         101  RMEM                                    ; Archivo: LinkedSearchBinaryTree.txt línea: 1953 columna: 1.
      2142           1  1                                       ; Archivo: LinkedSearchBinaryTree.txt línea: 1953 columna: 6.
      2143           1  PUSH                                    ; Archivo: LinkedSearchBinaryTree.txt línea: 1956 columna: 1.
      2144          66  L_MET_System_println                    ; Archivo: LinkedSearchBinaryTree.txt línea: 1956 columna: 6.
      2145         100  CALL                                    ; Archivo: LinkedSearchBinaryTree.txt línea: 1957 columna: 1.
      2146         125  STOREFP                                 ; Archivo: LinkedSearchBinaryTree.txt línea: 1958 columna: 1.
      2147         103  RET                                     ; Archivo: LinkedSearchBinaryTree.txt línea: 1959 columna: 1.
      2148           4  4                                       ; Archivo: LinkedSearchBinaryTree.txt línea: 1959 columna: 5.
      2149         124  L_MET_Main_obtener: LOADFP              ; Archivo: LinkedSearchBinaryTree.txt línea: 1962 columna: 21.
      2150         122  LOADSP                                  ; Archivo: LinkedSearchBinaryTree.txt línea: 1963 columna: 1.
      2151         125  STOREFP                                 ; Archivo: LinkedSearchBinaryTree.txt línea: 1964 columna: 1.
      2152         101  RMEM                                    ; Archivo: LinkedSearchBinaryTree.txt línea: 1965 columna: 1.
      2153           1  1                                       ; Archivo: LinkedSearchBinaryTree.txt línea: 1965 columna: 6.
      2154         101  RMEM                                    ; Archivo: LinkedSearchBinaryTree.txt línea: 1967 columna: 1.
      2155           1  1                                       ; Archivo: LinkedSearchBinaryTree.txt línea: 1967 columna: 6.
      2156           1  PUSH                                    ; Archivo: LinkedSearchBinaryTree.txt línea: 1972 columna: 1.
      2157        2854  lString23_obtener_Main                  ; Archivo: LinkedSearchBinaryTree.txt línea: 1972 columna: 6.
      2158          32  SWAP                                    ; Archivo: LinkedSearchBinaryTree.txt línea: 1973 columna: 1.
      2159           1  PUSH                                    ; Archivo: LinkedSearchBinaryTree.txt línea: 1975 columna: 1.
      2160          56  L_MET_System_printS                     ; Archivo: LinkedSearchBinaryTree.txt línea: 1975 columna: 6.
      2161         100  CALL                                    ; Archivo: LinkedSearchBinaryTree.txt línea: 1976 columna: 1.
      2162         101  RMEM                                    ; Archivo: LinkedSearchBinaryTree.txt línea: 1978 columna: 1.
      2163           1  1                                       ; Archivo: LinkedSearchBinaryTree.txt línea: 1978 columna: 6.
      2164          80  LOAD                                    ; Archivo: LinkedSearchBinaryTree.txt línea: 1981 columna: 1.
      2165           4  4                                       ; Archivo: LinkedSearchBinaryTree.txt línea: 1981 columna: 6.
      2166          32  SWAP                                    ; Archivo: LinkedSearchBinaryTree.txt línea: 1982 columna: 1.
      2167           1  PUSH                                    ; Archivo: LinkedSearchBinaryTree.txt línea: 1984 columna: 1.
      2168          26  L_MET_System_printI                     ; Archivo: LinkedSearchBinaryTree.txt línea: 1984 columna: 6.
      2169         100  CALL                                    ; Archivo: LinkedSearchBinaryTree.txt línea: 1985 columna: 1.
      2170         101  RMEM                                    ; Archivo: LinkedSearchBinaryTree.txt línea: 1987 columna: 1.
      2171           1  1                                       ; Archivo: LinkedSearchBinaryTree.txt línea: 1987 columna: 6.
      2172           1  PUSH                                    ; Archivo: LinkedSearchBinaryTree.txt línea: 1992 columna: 1.
      2173        2864  lString24_obtener_Main                  ; Archivo: LinkedSearchBinaryTree.txt línea: 1992 columna: 6.
      2174          32  SWAP                                    ; Archivo: LinkedSearchBinaryTree.txt línea: 1993 columna: 1.
      2175           1  PUSH                                    ; Archivo: LinkedSearchBinaryTree.txt línea: 1995 columna: 1.
      2176          56  L_MET_System_printS                     ; Archivo: LinkedSearchBinaryTree.txt línea: 1995 columna: 6.
      2177         100  CALL                                    ; Archivo: LinkedSearchBinaryTree.txt línea: 1996 columna: 1.
      2178          80  LOAD                                    ; Archivo: LinkedSearchBinaryTree.txt línea: 1998 columna: 1.
      2179           5  5                                       ; Archivo: LinkedSearchBinaryTree.txt línea: 1998 columna: 6.
      2180         101  RMEM                                    ; Archivo: LinkedSearchBinaryTree.txt línea: 2000 columna: 1.
      2181           1  1                                       ; Archivo: LinkedSearchBinaryTree.txt línea: 2000 columna: 6.
      2182          32  SWAP                                    ; Archivo: LinkedSearchBinaryTree.txt línea: 2001 columna: 1.
      2183          80  LOAD                                    ; Archivo: LinkedSearchBinaryTree.txt línea: 2003 columna: 1.
      2184           4  4                                       ; Archivo: LinkedSearchBinaryTree.txt línea: 2003 columna: 6.
      2185          32  SWAP                                    ; Archivo: LinkedSearchBinaryTree.txt línea: 2004 columna: 1.
      2186          30  DUP                                     ; Archivo: LinkedSearchBinaryTree.txt línea: 2006 columna: 1.
      2187          82  LOADREF                                 ; Archivo: LinkedSearchBinaryTree.txt línea: 2007 columna: 1.
      2188           0  0                                       ; Archivo: LinkedSearchBinaryTree.txt línea: 2007 columna: 9.
      2189          82  LOADREF                                 ; Archivo: LinkedSearchBinaryTree.txt línea: 2008 columna: 1.
      2190          15  15                                      ; Archivo: LinkedSearchBinaryTree.txt línea: 2008 columna: 9.
      2191         100  CALL                                    ; Archivo: LinkedSearchBinaryTree.txt línea: 2009 columna: 1.
      2192          81  STORE                                   ; Archivo: LinkedSearchBinaryTree.txt línea: 2011 columna: 1.
      2193           0  0                                       ; Archivo: LinkedSearchBinaryTree.txt línea: 2011 columna: 7.
      2194          80  LOAD                                    ; Archivo: LinkedSearchBinaryTree.txt línea: 2013 columna: 1.
      2195           0  0                                       ; Archivo: LinkedSearchBinaryTree.txt línea: 2013 columna: 6.
      2196           1  PUSH                                    ; Archivo: LinkedSearchBinaryTree.txt línea: 2015 columna: 1.
      2197           0  0                                       ; Archivo: LinkedSearchBinaryTree.txt línea: 2015 columna: 6.
      2198          12  NE                                      ; Archivo: LinkedSearchBinaryTree.txt línea: 2017 columna: 1.
      2199          41  BF                                      ; Archivo: LinkedSearchBinaryTree.txt línea: 2019 columna: 1.
      2200        2220  L_ENDIF_25_obtener_Main                 ; Archivo: LinkedSearchBinaryTree.txt línea: 2019 columna: 4.
      2201         101  RMEM                                    ; Archivo: LinkedSearchBinaryTree.txt línea: 2021 columna: 1.
      2202           1  1                                       ; Archivo: LinkedSearchBinaryTree.txt línea: 2021 columna: 6.
      2203          80  LOAD                                    ; Archivo: LinkedSearchBinaryTree.txt línea: 2024 columna: 1.
      2204           0  0                                       ; Archivo: LinkedSearchBinaryTree.txt línea: 2024 columna: 6.
      2205         101  RMEM                                    ; Archivo: LinkedSearchBinaryTree.txt línea: 2026 columna: 1.
      2206           1  1                                       ; Archivo: LinkedSearchBinaryTree.txt línea: 2026 columna: 6.
      2207          32  SWAP                                    ; Archivo: LinkedSearchBinaryTree.txt línea: 2027 columna: 1.
      2208          30  DUP                                     ; Archivo: LinkedSearchBinaryTree.txt línea: 2029 columna: 1.
      2209          82  LOADREF                                 ; Archivo: LinkedSearchBinaryTree.txt línea: 2030 columna: 1.
      2210           0  0                                       ; Archivo: LinkedSearchBinaryTree.txt línea: 2030 columna: 9.
      2211          82  LOADREF                                 ; Archivo: LinkedSearchBinaryTree.txt línea: 2031 columna: 1.
      2212           1  1                                       ; Archivo: LinkedSearchBinaryTree.txt línea: 2031 columna: 9.
      2213         100  CALL                                    ; Archivo: LinkedSearchBinaryTree.txt línea: 2032 columna: 1.
      2214          32  SWAP                                    ; Archivo: LinkedSearchBinaryTree.txt línea: 2033 columna: 1.
      2215           1  PUSH                                    ; Archivo: LinkedSearchBinaryTree.txt línea: 2035 columna: 1.
      2216          56  L_MET_System_printS                     ; Archivo: LinkedSearchBinaryTree.txt línea: 2035 columna: 6.
      2217         100  CALL                                    ; Archivo: LinkedSearchBinaryTree.txt línea: 2036 columna: 1.
      2218          40  JUMP                                    ; Archivo: LinkedSearchBinaryTree.txt línea: 2037 columna: 1.
      2219        2229  L_ENDELSE_25_obtener_Main               ; Archivo: LinkedSearchBinaryTree.txt línea: 2037 columna: 6.
      2220           0  L_ENDIF_25_obtener_Main: NOP            ; Archivo: LinkedSearchBinaryTree.txt línea: 2038 columna: 26.
      2221         101  RMEM                                    ; Archivo: LinkedSearchBinaryTree.txt línea: 2040 columna: 1.
      2222           1  1                                       ; Archivo: LinkedSearchBinaryTree.txt línea: 2040 columna: 6.
      2223           1  PUSH                                    ; Archivo: LinkedSearchBinaryTree.txt línea: 2045 columna: 1.
      2224        2868  lString26_obtener_Main                  ; Archivo: LinkedSearchBinaryTree.txt línea: 2045 columna: 6.
      2225          32  SWAP                                    ; Archivo: LinkedSearchBinaryTree.txt línea: 2046 columna: 1.
      2226           1  PUSH                                    ; Archivo: LinkedSearchBinaryTree.txt línea: 2048 columna: 1.
      2227          56  L_MET_System_printS                     ; Archivo: LinkedSearchBinaryTree.txt línea: 2048 columna: 6.
      2228         100  CALL                                    ; Archivo: LinkedSearchBinaryTree.txt línea: 2049 columna: 1.
      2229           0  L_ENDELSE_25_obtener_Main: NOP          ; Archivo: LinkedSearchBinaryTree.txt línea: 2050 columna: 28.
      2230         101  RMEM                                    ; Archivo: LinkedSearchBinaryTree.txt línea: 2052 columna: 1.
      2231           1  1                                       ; Archivo: LinkedSearchBinaryTree.txt línea: 2052 columna: 6.
      2232           1  PUSH                                    ; Archivo: LinkedSearchBinaryTree.txt línea: 2055 columna: 1.
      2233          66  L_MET_System_println                    ; Archivo: LinkedSearchBinaryTree.txt línea: 2055 columna: 6.
      2234         100  CALL                                    ; Archivo: LinkedSearchBinaryTree.txt línea: 2056 columna: 1.
      2235         102  FMEM                                    ; Archivo: LinkedSearchBinaryTree.txt línea: 2057 columna: 1.
      2236           1  1                                       ; Archivo: LinkedSearchBinaryTree.txt línea: 2057 columna: 6.
      2237         125  STOREFP                                 ; Archivo: LinkedSearchBinaryTree.txt línea: 2058 columna: 1.
      2238         103  RET                                     ; Archivo: LinkedSearchBinaryTree.txt línea: 2059 columna: 1.
      2239           3  3                                       ; Archivo: LinkedSearchBinaryTree.txt línea: 2059 columna: 5.
      2240         124  L_MET_Main_eliminar: LOADFP             ; Archivo: LinkedSearchBinaryTree.txt línea: 2062 columna: 22.
      2241         122  LOADSP                                  ; Archivo: LinkedSearchBinaryTree.txt línea: 2063 columna: 1.
      2242         125  STOREFP                                 ; Archivo: LinkedSearchBinaryTree.txt línea: 2064 columna: 1.
      2243         101  RMEM                                    ; Archivo: LinkedSearchBinaryTree.txt línea: 2066 columna: 1.
      2244           1  1                                       ; Archivo: LinkedSearchBinaryTree.txt línea: 2066 columna: 6.
      2245           1  PUSH                                    ; Archivo: LinkedSearchBinaryTree.txt línea: 2071 columna: 1.
      2246        2889  lString27_eliminar_Main                 ; Archivo: LinkedSearchBinaryTree.txt línea: 2071 columna: 6.
      2247          32  SWAP                                    ; Archivo: LinkedSearchBinaryTree.txt línea: 2072 columna: 1.
      2248           1  PUSH                                    ; Archivo: LinkedSearchBinaryTree.txt línea: 2074 columna: 1.
      2249          56  L_MET_System_printS                     ; Archivo: LinkedSearchBinaryTree.txt línea: 2074 columna: 6.
      2250         100  CALL                                    ; Archivo: LinkedSearchBinaryTree.txt línea: 2075 columna: 1.
      2251         101  RMEM                                    ; Archivo: LinkedSearchBinaryTree.txt línea: 2077 columna: 1.
      2252           1  1                                       ; Archivo: LinkedSearchBinaryTree.txt línea: 2077 columna: 6.
      2253          80  LOAD                                    ; Archivo: LinkedSearchBinaryTree.txt línea: 2080 columna: 1.
      2254           4  4                                       ; Archivo: LinkedSearchBinaryTree.txt línea: 2080 columna: 6.
      2255          32  SWAP                                    ; Archivo: LinkedSearchBinaryTree.txt línea: 2081 columna: 1.
      2256           1  PUSH                                    ; Archivo: LinkedSearchBinaryTree.txt línea: 2083 columna: 1.
      2257          26  L_MET_System_printI                     ; Archivo: LinkedSearchBinaryTree.txt línea: 2083 columna: 6.
      2258         100  CALL                                    ; Archivo: LinkedSearchBinaryTree.txt línea: 2084 columna: 1.
      2259         101  RMEM                                    ; Archivo: LinkedSearchBinaryTree.txt línea: 2086 columna: 1.
      2260           1  1                                       ; Archivo: LinkedSearchBinaryTree.txt línea: 2086 columna: 6.
      2261           1  PUSH                                    ; Archivo: LinkedSearchBinaryTree.txt línea: 2091 columna: 1.
      2262        2899  lString28_eliminar_Main                 ; Archivo: LinkedSearchBinaryTree.txt línea: 2091 columna: 6.
      2263          32  SWAP                                    ; Archivo: LinkedSearchBinaryTree.txt línea: 2092 columna: 1.
      2264           1  PUSH                                    ; Archivo: LinkedSearchBinaryTree.txt línea: 2094 columna: 1.
      2265          56  L_MET_System_printS                     ; Archivo: LinkedSearchBinaryTree.txt línea: 2094 columna: 6.
      2266         100  CALL                                    ; Archivo: LinkedSearchBinaryTree.txt línea: 2095 columna: 1.
      2267         101  RMEM                                    ; Archivo: LinkedSearchBinaryTree.txt línea: 2097 columna: 1.
      2268           1  1                                       ; Archivo: LinkedSearchBinaryTree.txt línea: 2097 columna: 6.
      2269           1  PUSH                                    ; Archivo: LinkedSearchBinaryTree.txt línea: 2100 columna: 1.
      2270          66  L_MET_System_println                    ; Archivo: LinkedSearchBinaryTree.txt línea: 2100 columna: 6.
      2271         100  CALL                                    ; Archivo: LinkedSearchBinaryTree.txt línea: 2101 columna: 1.
      2272          80  LOAD                                    ; Archivo: LinkedSearchBinaryTree.txt línea: 2103 columna: 1.
      2273           5  5                                       ; Archivo: LinkedSearchBinaryTree.txt línea: 2103 columna: 6.
      2274         101  RMEM                                    ; Archivo: LinkedSearchBinaryTree.txt línea: 2105 columna: 1.
      2275           1  1                                       ; Archivo: LinkedSearchBinaryTree.txt línea: 2105 columna: 6.
      2276          32  SWAP                                    ; Archivo: LinkedSearchBinaryTree.txt línea: 2106 columna: 1.
      2277          80  LOAD                                    ; Archivo: LinkedSearchBinaryTree.txt línea: 2108 columna: 1.
      2278           4  4                                       ; Archivo: LinkedSearchBinaryTree.txt línea: 2108 columna: 6.
      2279          32  SWAP                                    ; Archivo: LinkedSearchBinaryTree.txt línea: 2109 columna: 1.
      2280          30  DUP                                     ; Archivo: LinkedSearchBinaryTree.txt línea: 2111 columna: 1.
      2281          82  LOADREF                                 ; Archivo: LinkedSearchBinaryTree.txt línea: 2112 columna: 1.
      2282           0  0                                       ; Archivo: LinkedSearchBinaryTree.txt línea: 2112 columna: 9.
      2283          82  LOADREF                                 ; Archivo: LinkedSearchBinaryTree.txt línea: 2113 columna: 1.
      2284          17  17                                      ; Archivo: LinkedSearchBinaryTree.txt línea: 2113 columna: 9.
      2285         100  CALL                                    ; Archivo: LinkedSearchBinaryTree.txt línea: 2114 columna: 1.
      2286          31  POP                                     ; Archivo: LinkedSearchBinaryTree.txt línea: 2115 columna: 1.
      2287         125  STOREFP                                 ; Archivo: LinkedSearchBinaryTree.txt línea: 2116 columna: 1.
      2288         103  RET                                     ; Archivo: LinkedSearchBinaryTree.txt línea: 2117 columna: 1.
      2289           3  3                                       ; Archivo: LinkedSearchBinaryTree.txt línea: 2117 columna: 5.
      2290         124  L_MET_Main_main: LOADFP                 ; Archivo: LinkedSearchBinaryTree.txt línea: 2120 columna: 18.
      2291         122  LOADSP                                  ; Archivo: LinkedSearchBinaryTree.txt línea: 2121 columna: 1.
      2292         125  STOREFP                                 ; Archivo: LinkedSearchBinaryTree.txt línea: 2122 columna: 1.
      2293         101  RMEM                                    ; Archivo: LinkedSearchBinaryTree.txt línea: 2123 columna: 1.
      2294           1  1                                       ; Archivo: LinkedSearchBinaryTree.txt línea: 2123 columna: 6.
      2295         101  RMEM                                    ; Archivo: LinkedSearchBinaryTree.txt línea: 2125 columna: 1.
      2296           1  1                                       ; Archivo: LinkedSearchBinaryTree.txt línea: 2125 columna: 6.
      2297           1  PUSH                                    ; Archivo: LinkedSearchBinaryTree.txt línea: 2130 columna: 1.
      2298        2901  lString29_main_Main                     ; Archivo: LinkedSearchBinaryTree.txt línea: 2130 columna: 6.
      2299          32  SWAP                                    ; Archivo: LinkedSearchBinaryTree.txt línea: 2131 columna: 1.
      2300           1  PUSH                                    ; Archivo: LinkedSearchBinaryTree.txt línea: 2133 columna: 1.
      2301         107  L_MET_System_printSln                   ; Archivo: LinkedSearchBinaryTree.txt línea: 2133 columna: 6.
      2302         100  CALL                                    ; Archivo: LinkedSearchBinaryTree.txt línea: 2134 columna: 1.
      2303         101  RMEM                                    ; Archivo: LinkedSearchBinaryTree.txt línea: 2136 columna: 1.
      2304           1  1                                       ; Archivo: LinkedSearchBinaryTree.txt línea: 2136 columna: 6.
      2305           1  PUSH                                    ; Archivo: LinkedSearchBinaryTree.txt línea: 2137 columna: 1.
      2306           3  3                                       ; Archivo: LinkedSearchBinaryTree.txt línea: 2137 columna: 6.
      2307           1  PUSH                                    ; Archivo: LinkedSearchBinaryTree.txt línea: 2138 columna: 1.
      2308         118  L_SIMPLE_MALLOC                         ; Archivo: LinkedSearchBinaryTree.txt línea: 2138 columna: 6.
      2309         100  CALL                                    ; Archivo: LinkedSearchBinaryTree.txt línea: 2139 columna: 1.
      2310          30  DUP                                     ; Archivo: LinkedSearchBinaryTree.txt línea: 2140 columna: 1.
      2311           1  PUSH                                    ; Archivo: LinkedSearchBinaryTree.txt línea: 2141 columna: 1.
      2312        2810  VT_LinkedSearchBinaryTree               ; Archivo: LinkedSearchBinaryTree.txt línea: 2141 columna: 6.
      2313          83  STOREREF                                ; Archivo: LinkedSearchBinaryTree.txt línea: 2142 columna: 1.
      2314           0  0                                       ; Archivo: LinkedSearchBinaryTree.txt línea: 2142 columna: 10.
      2315          30  DUP                                     ; Archivo: LinkedSearchBinaryTree.txt línea: 2143 columna: 1.
      2316           1  PUSH                                    ; Archivo: LinkedSearchBinaryTree.txt línea: 2145 columna: 1.
      2317         820  L_CTOR_LinkedSearchBinaryTree_LinkedSearchBinaryTree; Archivo: LinkedSearchBinaryTree.txt línea: 2145 columna: 6.
      2318         100  CALL                                    ; Archivo: LinkedSearchBinaryTree.txt línea: 2146 columna: 1.
      2319          81  STORE                                   ; Archivo: LinkedSearchBinaryTree.txt línea: 2148 columna: 1.
      2320           0  0                                       ; Archivo: LinkedSearchBinaryTree.txt línea: 2148 columna: 7.
      2321          80  LOAD                                    ; Archivo: LinkedSearchBinaryTree.txt línea: 2150 columna: 1.
      2322           3  3                                       ; Archivo: LinkedSearchBinaryTree.txt línea: 2150 columna: 6.
      2323          80  LOAD                                    ; Archivo: LinkedSearchBinaryTree.txt línea: 2152 columna: 1.
      2324           0  0                                       ; Archivo: LinkedSearchBinaryTree.txt línea: 2152 columna: 6.
      2325          32  SWAP                                    ; Archivo: LinkedSearchBinaryTree.txt línea: 2153 columna: 1.
      2326           1  PUSH                                    ; Archivo: LinkedSearchBinaryTree.txt línea: 2155 columna: 1.
      2327          15  15                                      ; Archivo: LinkedSearchBinaryTree.txt línea: 2155 columna: 6.
      2328          32  SWAP                                    ; Archivo: LinkedSearchBinaryTree.txt línea: 2156 columna: 1.
      2329           1  PUSH                                    ; Archivo: LinkedSearchBinaryTree.txt línea: 2160 columna: 1.
      2330        2941  lString30_main_Main                     ; Archivo: LinkedSearchBinaryTree.txt línea: 2160 columna: 6.
      2331          32  SWAP                                    ; Archivo: LinkedSearchBinaryTree.txt línea: 2161 columna: 1.
      2332           1  PUSH                                    ; Archivo: LinkedSearchBinaryTree.txt línea: 2162 columna: 1.
      2333        2845  VT_Main                                 ; Archivo: LinkedSearchBinaryTree.txt línea: 2162 columna: 6.
      2334          82  LOADREF                                 ; Archivo: LinkedSearchBinaryTree.txt línea: 2163 columna: 1.
      2335           0  0                                       ; Archivo: LinkedSearchBinaryTree.txt línea: 2163 columna: 9.
      2336         100  CALL                                    ; Archivo: LinkedSearchBinaryTree.txt línea: 2164 columna: 1.
      2337          80  LOAD                                    ; Archivo: LinkedSearchBinaryTree.txt línea: 2166 columna: 1.
      2338           3  3                                       ; Archivo: LinkedSearchBinaryTree.txt línea: 2166 columna: 6.
      2339          80  LOAD                                    ; Archivo: LinkedSearchBinaryTree.txt línea: 2168 columna: 1.
      2340           0  0                                       ; Archivo: LinkedSearchBinaryTree.txt línea: 2168 columna: 6.
      2341          32  SWAP                                    ; Archivo: LinkedSearchBinaryTree.txt línea: 2169 columna: 1.
      2342           1  PUSH                                    ; Archivo: LinkedSearchBinaryTree.txt línea: 2171 columna: 1.
      2343          45  45                                      ; Archivo: LinkedSearchBinaryTree.txt línea: 2171 columna: 6.
      2344          32  SWAP                                    ; Archivo: LinkedSearchBinaryTree.txt línea: 2172 columna: 1.
      2345           1  PUSH                                    ; Archivo: LinkedSearchBinaryTree.txt línea: 2176 columna: 1.
      2346        2945  lString31_main_Main                     ; Archivo: LinkedSearchBinaryTree.txt línea: 2176 columna: 6.
      2347          32  SWAP                                    ; Archivo: LinkedSearchBinaryTree.txt línea: 2177 columna: 1.
      2348           1  PUSH                                    ; Archivo: LinkedSearchBinaryTree.txt línea: 2178 columna: 1.
      2349        2845  VT_Main                                 ; Archivo: LinkedSearchBinaryTree.txt línea: 2178 columna: 6.
      2350          82  LOADREF                                 ; Archivo: LinkedSearchBinaryTree.txt línea: 2179 columna: 1.
      2351           0  0                                       ; Archivo: LinkedSearchBinaryTree.txt línea: 2179 columna: 9.
      2352         100  CALL                                    ; Archivo: LinkedSearchBinaryTree.txt línea: 2180 columna: 1.
      2353          80  LOAD                                    ; Archivo: LinkedSearchBinaryTree.txt línea: 2182 columna: 1.
      2354           3  3                                       ; Archivo: LinkedSearchBinaryTree.txt línea: 2182 columna: 6.
      2355          80  LOAD                                    ; Archivo: LinkedSearchBinaryTree.txt línea: 2184 columna: 1.
      2356           0  0                                       ; Archivo: LinkedSearchBinaryTree.txt línea: 2184 columna: 6.
      2357          32  SWAP                                    ; Archivo: LinkedSearchBinaryTree.txt línea: 2185 columna: 1.
      2358           1  PUSH                                    ; Archivo: LinkedSearchBinaryTree.txt línea: 2187 columna: 1.
      2359          56  56                                      ; Archivo: LinkedSearchBinaryTree.txt línea: 2187 columna: 6.
      2360          32  SWAP                                    ; Archivo: LinkedSearchBinaryTree.txt línea: 2188 columna: 1.
      2361           1  PUSH                                    ; Archivo: LinkedSearchBinaryTree.txt línea: 2192 columna: 1.
      2362        2951  lString32_main_Main                     ; Archivo: LinkedSearchBinaryTree.txt línea: 2192 columna: 6.
      2363          32  SWAP                                    ; Archivo: LinkedSearchBinaryTree.txt línea: 2193 columna: 1.
      2364           1  PUSH                                    ; Archivo: LinkedSearchBinaryTree.txt línea: 2194 columna: 1.
      2365        2845  VT_Main                                 ; Archivo: LinkedSearchBinaryTree.txt línea: 2194 columna: 6.
      2366          82  LOADREF                                 ; Archivo: LinkedSearchBinaryTree.txt línea: 2195 columna: 1.
      2367           0  0                                       ; Archivo: LinkedSearchBinaryTree.txt línea: 2195 columna: 9.
      2368         100  CALL                                    ; Archivo: LinkedSearchBinaryTree.txt línea: 2196 columna: 1.
      2369          80  LOAD                                    ; Archivo: LinkedSearchBinaryTree.txt línea: 2198 columna: 1.
      2370           3  3                                       ; Archivo: LinkedSearchBinaryTree.txt línea: 2198 columna: 6.
      2371          80  LOAD                                    ; Archivo: LinkedSearchBinaryTree.txt línea: 2200 columna: 1.
      2372           0  0                                       ; Archivo: LinkedSearchBinaryTree.txt línea: 2200 columna: 6.
      2373          32  SWAP                                    ; Archivo: LinkedSearchBinaryTree.txt línea: 2201 columna: 1.
      2374           1  PUSH                                    ; Archivo: LinkedSearchBinaryTree.txt línea: 2203 columna: 1.
      2375           1  1                                       ; Archivo: LinkedSearchBinaryTree.txt línea: 2203 columna: 6.
      2376          32  SWAP                                    ; Archivo: LinkedSearchBinaryTree.txt línea: 2204 columna: 1.
      2377           1  PUSH                                    ; Archivo: LinkedSearchBinaryTree.txt línea: 2208 columna: 1.
      2378        2960  lString33_main_Main                     ; Archivo: LinkedSearchBinaryTree.txt línea: 2208 columna: 6.
      2379          32  SWAP                                    ; Archivo: LinkedSearchBinaryTree.txt línea: 2209 columna: 1.
      2380           1  PUSH                                    ; Archivo: LinkedSearchBinaryTree.txt línea: 2210 columna: 1.
      2381        2845  VT_Main                                 ; Archivo: LinkedSearchBinaryTree.txt línea: 2210 columna: 6.
      2382          82  LOADREF                                 ; Archivo: LinkedSearchBinaryTree.txt línea: 2211 columna: 1.
      2383           0  0                                       ; Archivo: LinkedSearchBinaryTree.txt línea: 2211 columna: 9.
      2384         100  CALL                                    ; Archivo: LinkedSearchBinaryTree.txt línea: 2212 columna: 1.
      2385          80  LOAD                                    ; Archivo: LinkedSearchBinaryTree.txt línea: 2214 columna: 1.
      2386           3  3                                       ; Archivo: LinkedSearchBinaryTree.txt línea: 2214 columna: 6.
      2387          80  LOAD                                    ; Archivo: LinkedSearchBinaryTree.txt línea: 2216 columna: 1.
      2388           0  0                                       ; Archivo: LinkedSearchBinaryTree.txt línea: 2216 columna: 6.
      2389          32  SWAP                                    ; Archivo: LinkedSearchBinaryTree.txt línea: 2217 columna: 1.
      2390           1  PUSH                                    ; Archivo: LinkedSearchBinaryTree.txt línea: 2219 columna: 1.
      2391          12  12                                      ; Archivo: LinkedSearchBinaryTree.txt línea: 2219 columna: 6.
      2392          32  SWAP                                    ; Archivo: LinkedSearchBinaryTree.txt línea: 2220 columna: 1.
      2393           1  PUSH                                    ; Archivo: LinkedSearchBinaryTree.txt línea: 2224 columna: 1.
      2394        2966  lString34_main_Main                     ; Archivo: LinkedSearchBinaryTree.txt línea: 2224 columna: 6.
      2395          32  SWAP                                    ; Archivo: LinkedSearchBinaryTree.txt línea: 2225 columna: 1.
      2396           1  PUSH                                    ; Archivo: LinkedSearchBinaryTree.txt línea: 2226 columna: 1.
      2397        2845  VT_Main                                 ; Archivo: LinkedSearchBinaryTree.txt línea: 2226 columna: 6.
      2398          82  LOADREF                                 ; Archivo: LinkedSearchBinaryTree.txt línea: 2227 columna: 1.
      2399           0  0                                       ; Archivo: LinkedSearchBinaryTree.txt línea: 2227 columna: 9.
      2400         100  CALL                                    ; Archivo: LinkedSearchBinaryTree.txt línea: 2228 columna: 1.
      2401          80  LOAD                                    ; Archivo: LinkedSearchBinaryTree.txt línea: 2230 columna: 1.
      2402           3  3                                       ; Archivo: LinkedSearchBinaryTree.txt línea: 2230 columna: 6.
      2403          80  LOAD                                    ; Archivo: LinkedSearchBinaryTree.txt línea: 2232 columna: 1.
      2404           0  0                                       ; Archivo: LinkedSearchBinaryTree.txt línea: 2232 columna: 6.
      2405          32  SWAP                                    ; Archivo: LinkedSearchBinaryTree.txt línea: 2233 columna: 1.
      2406           1  PUSH                                    ; Archivo: LinkedSearchBinaryTree.txt línea: 2235 columna: 1.
      2407         543  543                                     ; Archivo: LinkedSearchBinaryTree.txt línea: 2235 columna: 6.
      2408          32  SWAP                                    ; Archivo: LinkedSearchBinaryTree.txt línea: 2236 columna: 1.
      2409           1  PUSH                                    ; Archivo: LinkedSearchBinaryTree.txt línea: 2240 columna: 1.
      2410        2971  lString35_main_Main                     ; Archivo: LinkedSearchBinaryTree.txt línea: 2240 columna: 6.
      2411          32  SWAP                                    ; Archivo: LinkedSearchBinaryTree.txt línea: 2241 columna: 1.
      2412           1  PUSH                                    ; Archivo: LinkedSearchBinaryTree.txt línea: 2242 columna: 1.
      2413        2845  VT_Main                                 ; Archivo: LinkedSearchBinaryTree.txt línea: 2242 columna: 6.
      2414          82  LOADREF                                 ; Archivo: LinkedSearchBinaryTree.txt línea: 2243 columna: 1.
      2415           0  0                                       ; Archivo: LinkedSearchBinaryTree.txt línea: 2243 columna: 9.
      2416         100  CALL                                    ; Archivo: LinkedSearchBinaryTree.txt línea: 2244 columna: 1.
      2417          80  LOAD                                    ; Archivo: LinkedSearchBinaryTree.txt línea: 2246 columna: 1.
      2418           3  3                                       ; Archivo: LinkedSearchBinaryTree.txt línea: 2246 columna: 6.
      2419          80  LOAD                                    ; Archivo: LinkedSearchBinaryTree.txt línea: 2248 columna: 1.
      2420           0  0                                       ; Archivo: LinkedSearchBinaryTree.txt línea: 2248 columna: 6.
      2421          32  SWAP                                    ; Archivo: LinkedSearchBinaryTree.txt línea: 2249 columna: 1.
      2422           1  PUSH                                    ; Archivo: LinkedSearchBinaryTree.txt línea: 2251 columna: 1.
      2423         156  156                                     ; Archivo: LinkedSearchBinaryTree.txt línea: 2251 columna: 6.
      2424          32  SWAP                                    ; Archivo: LinkedSearchBinaryTree.txt línea: 2252 columna: 1.
      2425           1  PUSH                                    ; Archivo: LinkedSearchBinaryTree.txt línea: 2256 columna: 1.
      2426        2977  lString36_main_Main                     ; Archivo: LinkedSearchBinaryTree.txt línea: 2256 columna: 6.
      2427          32  SWAP                                    ; Archivo: LinkedSearchBinaryTree.txt línea: 2257 columna: 1.
      2428           1  PUSH                                    ; Archivo: LinkedSearchBinaryTree.txt línea: 2258 columna: 1.
      2429        2845  VT_Main                                 ; Archivo: LinkedSearchBinaryTree.txt línea: 2258 columna: 6.
      2430          82  LOADREF                                 ; Archivo: LinkedSearchBinaryTree.txt línea: 2259 columna: 1.
      2431           0  0                                       ; Archivo: LinkedSearchBinaryTree.txt línea: 2259 columna: 9.
      2432         100  CALL                                    ; Archivo: LinkedSearchBinaryTree.txt línea: 2260 columna: 1.
      2433          80  LOAD                                    ; Archivo: LinkedSearchBinaryTree.txt línea: 2262 columna: 1.
      2434           3  3                                       ; Archivo: LinkedSearchBinaryTree.txt línea: 2262 columna: 6.
      2435          80  LOAD                                    ; Archivo: LinkedSearchBinaryTree.txt línea: 2264 columna: 1.
      2436           0  0                                       ; Archivo: LinkedSearchBinaryTree.txt línea: 2264 columna: 6.
      2437          32  SWAP                                    ; Archivo: LinkedSearchBinaryTree.txt línea: 2265 columna: 1.
      2438           1  PUSH                                    ; Archivo: LinkedSearchBinaryTree.txt línea: 2267 columna: 1.
      2439          34  34                                      ; Archivo: LinkedSearchBinaryTree.txt línea: 2267 columna: 6.
      2440          32  SWAP                                    ; Archivo: LinkedSearchBinaryTree.txt línea: 2268 columna: 1.
      2441           1  PUSH                                    ; Archivo: LinkedSearchBinaryTree.txt línea: 2272 columna: 1.
      2442        2982  lString37_main_Main                     ; Archivo: LinkedSearchBinaryTree.txt línea: 2272 columna: 6.
      2443          32  SWAP                                    ; Archivo: LinkedSearchBinaryTree.txt línea: 2273 columna: 1.
      2444           1  PUSH                                    ; Archivo: LinkedSearchBinaryTree.txt línea: 2274 columna: 1.
      2445        2845  VT_Main                                 ; Archivo: LinkedSearchBinaryTree.txt línea: 2274 columna: 6.
      2446          82  LOADREF                                 ; Archivo: LinkedSearchBinaryTree.txt línea: 2275 columna: 1.
      2447           0  0                                       ; Archivo: LinkedSearchBinaryTree.txt línea: 2275 columna: 9.
      2448         100  CALL                                    ; Archivo: LinkedSearchBinaryTree.txt línea: 2276 columna: 1.
      2449          80  LOAD                                    ; Archivo: LinkedSearchBinaryTree.txt línea: 2278 columna: 1.
      2450           3  3                                       ; Archivo: LinkedSearchBinaryTree.txt línea: 2278 columna: 6.
      2451          80  LOAD                                    ; Archivo: LinkedSearchBinaryTree.txt línea: 2280 columna: 1.
      2452           0  0                                       ; Archivo: LinkedSearchBinaryTree.txt línea: 2280 columna: 6.
      2453          32  SWAP                                    ; Archivo: LinkedSearchBinaryTree.txt línea: 2281 columna: 1.
      2454           1  PUSH                                    ; Archivo: LinkedSearchBinaryTree.txt línea: 2283 columna: 1.
      2455          26  26                                      ; Archivo: LinkedSearchBinaryTree.txt línea: 2283 columna: 6.
      2456          32  SWAP                                    ; Archivo: LinkedSearchBinaryTree.txt línea: 2284 columna: 1.
      2457           1  PUSH                                    ; Archivo: LinkedSearchBinaryTree.txt línea: 2288 columna: 1.
      2458        2991  lString38_main_Main                     ; Archivo: LinkedSearchBinaryTree.txt línea: 2288 columna: 6.
      2459          32  SWAP                                    ; Archivo: LinkedSearchBinaryTree.txt línea: 2289 columna: 1.
      2460           1  PUSH                                    ; Archivo: LinkedSearchBinaryTree.txt línea: 2290 columna: 1.
      2461        2845  VT_Main                                 ; Archivo: LinkedSearchBinaryTree.txt línea: 2290 columna: 6.
      2462          82  LOADREF                                 ; Archivo: LinkedSearchBinaryTree.txt línea: 2291 columna: 1.
      2463           0  0                                       ; Archivo: LinkedSearchBinaryTree.txt línea: 2291 columna: 9.
      2464         100  CALL                                    ; Archivo: LinkedSearchBinaryTree.txt línea: 2292 columna: 1.
      2465          80  LOAD                                    ; Archivo: LinkedSearchBinaryTree.txt línea: 2294 columna: 1.
      2466           3  3                                       ; Archivo: LinkedSearchBinaryTree.txt línea: 2294 columna: 6.
      2467          80  LOAD                                    ; Archivo: LinkedSearchBinaryTree.txt línea: 2296 columna: 1.
      2468           0  0                                       ; Archivo: LinkedSearchBinaryTree.txt línea: 2296 columna: 6.
      2469          32  SWAP                                    ; Archivo: LinkedSearchBinaryTree.txt línea: 2297 columna: 1.
      2470           1  PUSH                                    ; Archivo: LinkedSearchBinaryTree.txt línea: 2299 columna: 1.
      2471          11  11                                      ; Archivo: LinkedSearchBinaryTree.txt línea: 2299 columna: 6.
      2472          32  SWAP                                    ; Archivo: LinkedSearchBinaryTree.txt línea: 2300 columna: 1.
      2473           1  PUSH                                    ; Archivo: LinkedSearchBinaryTree.txt línea: 2304 columna: 1.
      2474        2996  lString39_main_Main                     ; Archivo: LinkedSearchBinaryTree.txt línea: 2304 columna: 6.
      2475          32  SWAP                                    ; Archivo: LinkedSearchBinaryTree.txt línea: 2305 columna: 1.
      2476           1  PUSH                                    ; Archivo: LinkedSearchBinaryTree.txt línea: 2306 columna: 1.
      2477        2845  VT_Main                                 ; Archivo: LinkedSearchBinaryTree.txt línea: 2306 columna: 6.
      2478          82  LOADREF                                 ; Archivo: LinkedSearchBinaryTree.txt línea: 2307 columna: 1.
      2479           0  0                                       ; Archivo: LinkedSearchBinaryTree.txt línea: 2307 columna: 9.
      2480         100  CALL                                    ; Archivo: LinkedSearchBinaryTree.txt línea: 2308 columna: 1.
      2481          80  LOAD                                    ; Archivo: LinkedSearchBinaryTree.txt línea: 2310 columna: 1.
      2482           3  3                                       ; Archivo: LinkedSearchBinaryTree.txt línea: 2310 columna: 6.
      2483          80  LOAD                                    ; Archivo: LinkedSearchBinaryTree.txt línea: 2312 columna: 1.
      2484           0  0                                       ; Archivo: LinkedSearchBinaryTree.txt línea: 2312 columna: 6.
      2485          32  SWAP                                    ; Archivo: LinkedSearchBinaryTree.txt línea: 2313 columna: 1.
      2486           1  PUSH                                    ; Archivo: LinkedSearchBinaryTree.txt línea: 2315 columna: 1.
      2487         100  100                                     ; Archivo: LinkedSearchBinaryTree.txt línea: 2315 columna: 6.
      2488          32  SWAP                                    ; Archivo: LinkedSearchBinaryTree.txt línea: 2316 columna: 1.
      2489           1  PUSH                                    ; Archivo: LinkedSearchBinaryTree.txt línea: 2320 columna: 1.
      2490        3002  lString40_main_Main                     ; Archivo: LinkedSearchBinaryTree.txt línea: 2320 columna: 6.
      2491          32  SWAP                                    ; Archivo: LinkedSearchBinaryTree.txt línea: 2321 columna: 1.
      2492           1  PUSH                                    ; Archivo: LinkedSearchBinaryTree.txt línea: 2322 columna: 1.
      2493        2845  VT_Main                                 ; Archivo: LinkedSearchBinaryTree.txt línea: 2322 columna: 6.
      2494          82  LOADREF                                 ; Archivo: LinkedSearchBinaryTree.txt línea: 2323 columna: 1.
      2495           0  0                                       ; Archivo: LinkedSearchBinaryTree.txt línea: 2323 columna: 9.
      2496         100  CALL                                    ; Archivo: LinkedSearchBinaryTree.txt línea: 2324 columna: 1.
      2497          80  LOAD                                    ; Archivo: LinkedSearchBinaryTree.txt línea: 2326 columna: 1.
      2498           3  3                                       ; Archivo: LinkedSearchBinaryTree.txt línea: 2326 columna: 6.
      2499          80  LOAD                                    ; Archivo: LinkedSearchBinaryTree.txt línea: 2328 columna: 1.
      2500           0  0                                       ; Archivo: LinkedSearchBinaryTree.txt línea: 2328 columna: 6.
      2501          32  SWAP                                    ; Archivo: LinkedSearchBinaryTree.txt línea: 2329 columna: 1.
      2502           1  PUSH                                    ; Archivo: LinkedSearchBinaryTree.txt línea: 2331 columna: 1.
      2503         320  320                                     ; Archivo: LinkedSearchBinaryTree.txt línea: 2331 columna: 6.
      2504          32  SWAP                                    ; Archivo: LinkedSearchBinaryTree.txt línea: 2332 columna: 1.
      2505           1  PUSH                                    ; Archivo: LinkedSearchBinaryTree.txt línea: 2336 columna: 1.
      2506        3008  lString41_main_Main                     ; Archivo: LinkedSearchBinaryTree.txt línea: 2336 columna: 6.
      2507          32  SWAP                                    ; Archivo: LinkedSearchBinaryTree.txt línea: 2337 columna: 1.
      2508           1  PUSH                                    ; Archivo: LinkedSearchBinaryTree.txt línea: 2338 columna: 1.
      2509        2845  VT_Main                                 ; Archivo: LinkedSearchBinaryTree.txt línea: 2338 columna: 6.
      2510          82  LOADREF                                 ; Archivo: LinkedSearchBinaryTree.txt línea: 2339 columna: 1.
      2511           0  0                                       ; Archivo: LinkedSearchBinaryTree.txt línea: 2339 columna: 9.
      2512         100  CALL                                    ; Archivo: LinkedSearchBinaryTree.txt línea: 2340 columna: 1.
      2513          80  LOAD                                    ; Archivo: LinkedSearchBinaryTree.txt línea: 2342 columna: 1.
      2514           3  3                                       ; Archivo: LinkedSearchBinaryTree.txt línea: 2342 columna: 6.
      2515          80  LOAD                                    ; Archivo: LinkedSearchBinaryTree.txt línea: 2344 columna: 1.
      2516           0  0                                       ; Archivo: LinkedSearchBinaryTree.txt línea: 2344 columna: 6.
      2517          32  SWAP                                    ; Archivo: LinkedSearchBinaryTree.txt línea: 2345 columna: 1.
      2518           1  PUSH                                    ; Archivo: LinkedSearchBinaryTree.txt línea: 2347 columna: 1.
      2519         800  800                                     ; Archivo: LinkedSearchBinaryTree.txt línea: 2347 columna: 6.
      2520          32  SWAP                                    ; Archivo: LinkedSearchBinaryTree.txt línea: 2348 columna: 1.
      2521           1  PUSH                                    ; Archivo: LinkedSearchBinaryTree.txt línea: 2352 columna: 1.
      2522        3016  lString42_main_Main                     ; Archivo: LinkedSearchBinaryTree.txt línea: 2352 columna: 6.
      2523          32  SWAP                                    ; Archivo: LinkedSearchBinaryTree.txt línea: 2353 columna: 1.
      2524           1  PUSH                                    ; Archivo: LinkedSearchBinaryTree.txt línea: 2354 columna: 1.
      2525        2845  VT_Main                                 ; Archivo: LinkedSearchBinaryTree.txt línea: 2354 columna: 6.
      2526          82  LOADREF                                 ; Archivo: LinkedSearchBinaryTree.txt línea: 2355 columna: 1.
      2527           0  0                                       ; Archivo: LinkedSearchBinaryTree.txt línea: 2355 columna: 9.
      2528         100  CALL                                    ; Archivo: LinkedSearchBinaryTree.txt línea: 2356 columna: 1.
      2529          80  LOAD                                    ; Archivo: LinkedSearchBinaryTree.txt línea: 2358 columna: 1.
      2530           3  3                                       ; Archivo: LinkedSearchBinaryTree.txt línea: 2358 columna: 6.
      2531          80  LOAD                                    ; Archivo: LinkedSearchBinaryTree.txt línea: 2360 columna: 1.
      2532           0  0                                       ; Archivo: LinkedSearchBinaryTree.txt línea: 2360 columna: 6.
      2533          32  SWAP                                    ; Archivo: LinkedSearchBinaryTree.txt línea: 2361 columna: 1.
      2534           1  PUSH                                    ; Archivo: LinkedSearchBinaryTree.txt línea: 2363 columna: 1.
      2535         810  810                                     ; Archivo: LinkedSearchBinaryTree.txt línea: 2363 columna: 6.
      2536          32  SWAP                                    ; Archivo: LinkedSearchBinaryTree.txt línea: 2364 columna: 1.
      2537           1  PUSH                                    ; Archivo: LinkedSearchBinaryTree.txt línea: 2368 columna: 1.
      2538        3021  lString43_main_Main                     ; Archivo: LinkedSearchBinaryTree.txt línea: 2368 columna: 6.
      2539          32  SWAP                                    ; Archivo: LinkedSearchBinaryTree.txt línea: 2369 columna: 1.
      2540           1  PUSH                                    ; Archivo: LinkedSearchBinaryTree.txt línea: 2370 columna: 1.
      2541        2845  VT_Main                                 ; Archivo: LinkedSearchBinaryTree.txt línea: 2370 columna: 6.
      2542          82  LOADREF                                 ; Archivo: LinkedSearchBinaryTree.txt línea: 2371 columna: 1.
      2543           0  0                                       ; Archivo: LinkedSearchBinaryTree.txt línea: 2371 columna: 9.
      2544         100  CALL                                    ; Archivo: LinkedSearchBinaryTree.txt línea: 2372 columna: 1.
      2545          80  LOAD                                    ; Archivo: LinkedSearchBinaryTree.txt línea: 2374 columna: 1.
      2546           3  3                                       ; Archivo: LinkedSearchBinaryTree.txt línea: 2374 columna: 6.
      2547          80  LOAD                                    ; Archivo: LinkedSearchBinaryTree.txt línea: 2376 columna: 1.
      2548           0  0                                       ; Archivo: LinkedSearchBinaryTree.txt línea: 2376 columna: 6.
      2549          32  SWAP                                    ; Archivo: LinkedSearchBinaryTree.txt línea: 2377 columna: 1.
      2550           1  PUSH                                    ; Archivo: LinkedSearchBinaryTree.txt línea: 2379 columna: 1.
      2551         901  901                                     ; Archivo: LinkedSearchBinaryTree.txt línea: 2379 columna: 6.
      2552          32  SWAP                                    ; Archivo: LinkedSearchBinaryTree.txt línea: 2380 columna: 1.
      2553           1  PUSH                                    ; Archivo: LinkedSearchBinaryTree.txt línea: 2384 columna: 1.
      2554        3026  lString44_main_Main                     ; Archivo: LinkedSearchBinaryTree.txt línea: 2384 columna: 6.
      2555          32  SWAP                                    ; Archivo: LinkedSearchBinaryTree.txt línea: 2385 columna: 1.
      2556           1  PUSH                                    ; Archivo: LinkedSearchBinaryTree.txt línea: 2386 columna: 1.
      2557        2845  VT_Main                                 ; Archivo: LinkedSearchBinaryTree.txt línea: 2386 columna: 6.
      2558          82  LOADREF                                 ; Archivo: LinkedSearchBinaryTree.txt línea: 2387 columna: 1.
      2559           0  0                                       ; Archivo: LinkedSearchBinaryTree.txt línea: 2387 columna: 9.
      2560         100  CALL                                    ; Archivo: LinkedSearchBinaryTree.txt línea: 2388 columna: 1.
      2561          80  LOAD                                    ; Archivo: LinkedSearchBinaryTree.txt línea: 2390 columna: 1.
      2562           3  3                                       ; Archivo: LinkedSearchBinaryTree.txt línea: 2390 columna: 6.
      2563          80  LOAD                                    ; Archivo: LinkedSearchBinaryTree.txt línea: 2392 columna: 1.
      2564           0  0                                       ; Archivo: LinkedSearchBinaryTree.txt línea: 2392 columna: 6.
      2565          32  SWAP                                    ; Archivo: LinkedSearchBinaryTree.txt línea: 2393 columna: 1.
      2566           1  PUSH                                    ; Archivo: LinkedSearchBinaryTree.txt línea: 2395 columna: 1.
      2567          43  43                                      ; Archivo: LinkedSearchBinaryTree.txt línea: 2395 columna: 6.
      2568          32  SWAP                                    ; Archivo: LinkedSearchBinaryTree.txt línea: 2396 columna: 1.
      2569           1  PUSH                                    ; Archivo: LinkedSearchBinaryTree.txt línea: 2400 columna: 1.
      2570        3034  lString45_main_Main                     ; Archivo: LinkedSearchBinaryTree.txt línea: 2400 columna: 6.
      2571          32  SWAP                                    ; Archivo: LinkedSearchBinaryTree.txt línea: 2401 columna: 1.
      2572           1  PUSH                                    ; Archivo: LinkedSearchBinaryTree.txt línea: 2402 columna: 1.
      2573        2845  VT_Main                                 ; Archivo: LinkedSearchBinaryTree.txt línea: 2402 columna: 6.
      2574          82  LOADREF                                 ; Archivo: LinkedSearchBinaryTree.txt línea: 2403 columna: 1.
      2575           0  0                                       ; Archivo: LinkedSearchBinaryTree.txt línea: 2403 columna: 9.
      2576         100  CALL                                    ; Archivo: LinkedSearchBinaryTree.txt línea: 2404 columna: 1.
      2577          80  LOAD                                    ; Archivo: LinkedSearchBinaryTree.txt línea: 2406 columna: 1.
      2578           3  3                                       ; Archivo: LinkedSearchBinaryTree.txt línea: 2406 columna: 6.
      2579          80  LOAD                                    ; Archivo: LinkedSearchBinaryTree.txt línea: 2408 columna: 1.
      2580           0  0                                       ; Archivo: LinkedSearchBinaryTree.txt línea: 2408 columna: 6.
      2581          32  SWAP                                    ; Archivo: LinkedSearchBinaryTree.txt línea: 2409 columna: 1.
      2582           1  PUSH                                    ; Archivo: LinkedSearchBinaryTree.txt línea: 2411 columna: 1.
      2583           2  2                                       ; Archivo: LinkedSearchBinaryTree.txt línea: 2411 columna: 6.
      2584          32  SWAP                                    ; Archivo: LinkedSearchBinaryTree.txt línea: 2412 columna: 1.
      2585           1  PUSH                                    ; Archivo: LinkedSearchBinaryTree.txt línea: 2416 columna: 1.
      2586        3041  lString46_main_Main                     ; Archivo: LinkedSearchBinaryTree.txt línea: 2416 columna: 6.
      2587          32  SWAP                                    ; Archivo: LinkedSearchBinaryTree.txt línea: 2417 columna: 1.
      2588           1  PUSH                                    ; Archivo: LinkedSearchBinaryTree.txt línea: 2418 columna: 1.
      2589        2845  VT_Main                                 ; Archivo: LinkedSearchBinaryTree.txt línea: 2418 columna: 6.
      2590          82  LOADREF                                 ; Archivo: LinkedSearchBinaryTree.txt línea: 2419 columna: 1.
      2591           0  0                                       ; Archivo: LinkedSearchBinaryTree.txt línea: 2419 columna: 9.
      2592         100  CALL                                    ; Archivo: LinkedSearchBinaryTree.txt línea: 2420 columna: 1.
      2593         101  RMEM                                    ; Archivo: LinkedSearchBinaryTree.txt línea: 2422 columna: 1.
      2594           1  1                                       ; Archivo: LinkedSearchBinaryTree.txt línea: 2422 columna: 6.
      2595           1  PUSH                                    ; Archivo: LinkedSearchBinaryTree.txt línea: 2425 columna: 1.
      2596          66  L_MET_System_println                    ; Archivo: LinkedSearchBinaryTree.txt línea: 2425 columna: 6.
      2597         100  CALL                                    ; Archivo: LinkedSearchBinaryTree.txt línea: 2426 columna: 1.
      2598          80  LOAD                                    ; Archivo: LinkedSearchBinaryTree.txt línea: 2428 columna: 1.
      2599           3  3                                       ; Archivo: LinkedSearchBinaryTree.txt línea: 2428 columna: 6.
      2600          80  LOAD                                    ; Archivo: LinkedSearchBinaryTree.txt línea: 2430 columna: 1.
      2601           0  0                                       ; Archivo: LinkedSearchBinaryTree.txt línea: 2430 columna: 6.
      2602          32  SWAP                                    ; Archivo: LinkedSearchBinaryTree.txt línea: 2431 columna: 1.
      2603           1  PUSH                                    ; Archivo: LinkedSearchBinaryTree.txt línea: 2433 columna: 1.
      2604         543  543                                     ; Archivo: LinkedSearchBinaryTree.txt línea: 2433 columna: 6.
      2605          32  SWAP                                    ; Archivo: LinkedSearchBinaryTree.txt línea: 2434 columna: 1.
      2606           1  PUSH                                    ; Archivo: LinkedSearchBinaryTree.txt línea: 2435 columna: 1.
      2607        2845  VT_Main                                 ; Archivo: LinkedSearchBinaryTree.txt línea: 2435 columna: 6.
      2608          82  LOADREF                                 ; Archivo: LinkedSearchBinaryTree.txt línea: 2436 columna: 1.
      2609           1  1                                       ; Archivo: LinkedSearchBinaryTree.txt línea: 2436 columna: 9.
      2610         100  CALL                                    ; Archivo: LinkedSearchBinaryTree.txt línea: 2437 columna: 1.
      2611          80  LOAD                                    ; Archivo: LinkedSearchBinaryTree.txt línea: 2439 columna: 1.
      2612           3  3                                       ; Archivo: LinkedSearchBinaryTree.txt línea: 2439 columna: 6.
      2613          80  LOAD                                    ; Archivo: LinkedSearchBinaryTree.txt línea: 2441 columna: 1.
      2614           0  0                                       ; Archivo: LinkedSearchBinaryTree.txt línea: 2441 columna: 6.
      2615          32  SWAP                                    ; Archivo: LinkedSearchBinaryTree.txt línea: 2442 columna: 1.
      2616           1  PUSH                                    ; Archivo: LinkedSearchBinaryTree.txt línea: 2444 columna: 1.
      2617          11  11                                      ; Archivo: LinkedSearchBinaryTree.txt línea: 2444 columna: 6.
      2618          32  SWAP                                    ; Archivo: LinkedSearchBinaryTree.txt línea: 2445 columna: 1.
      2619           1  PUSH                                    ; Archivo: LinkedSearchBinaryTree.txt línea: 2446 columna: 1.
      2620        2845  VT_Main                                 ; Archivo: LinkedSearchBinaryTree.txt línea: 2446 columna: 6.
      2621          82  LOADREF                                 ; Archivo: LinkedSearchBinaryTree.txt línea: 2447 columna: 1.
      2622           1  1                                       ; Archivo: LinkedSearchBinaryTree.txt línea: 2447 columna: 9.
      2623         100  CALL                                    ; Archivo: LinkedSearchBinaryTree.txt línea: 2448 columna: 1.
      2624          80  LOAD                                    ; Archivo: LinkedSearchBinaryTree.txt línea: 2450 columna: 1.
      2625           3  3                                       ; Archivo: LinkedSearchBinaryTree.txt línea: 2450 columna: 6.
      2626          80  LOAD                                    ; Archivo: LinkedSearchBinaryTree.txt línea: 2452 columna: 1.
      2627           0  0                                       ; Archivo: LinkedSearchBinaryTree.txt línea: 2452 columna: 6.
      2628          32  SWAP                                    ; Archivo: LinkedSearchBinaryTree.txt línea: 2453 columna: 1.
      2629           1  PUSH                                    ; Archivo: LinkedSearchBinaryTree.txt línea: 2455 columna: 1.
      2630           2  2                                       ; Archivo: LinkedSearchBinaryTree.txt línea: 2455 columna: 6.
      2631          32  SWAP                                    ; Archivo: LinkedSearchBinaryTree.txt línea: 2456 columna: 1.
      2632           1  PUSH                                    ; Archivo: LinkedSearchBinaryTree.txt línea: 2457 columna: 1.
      2633        2845  VT_Main                                 ; Archivo: LinkedSearchBinaryTree.txt línea: 2457 columna: 6.
      2634          82  LOADREF                                 ; Archivo: LinkedSearchBinaryTree.txt línea: 2458 columna: 1.
      2635           1  1                                       ; Archivo: LinkedSearchBinaryTree.txt línea: 2458 columna: 9.
      2636         100  CALL                                    ; Archivo: LinkedSearchBinaryTree.txt línea: 2459 columna: 1.
      2637          80  LOAD                                    ; Archivo: LinkedSearchBinaryTree.txt línea: 2461 columna: 1.
      2638           3  3                                       ; Archivo: LinkedSearchBinaryTree.txt línea: 2461 columna: 6.
      2639          80  LOAD                                    ; Archivo: LinkedSearchBinaryTree.txt línea: 2463 columna: 1.
      2640           0  0                                       ; Archivo: LinkedSearchBinaryTree.txt línea: 2463 columna: 6.
      2641          32  SWAP                                    ; Archivo: LinkedSearchBinaryTree.txt línea: 2464 columna: 1.
      2642           1  PUSH                                    ; Archivo: LinkedSearchBinaryTree.txt línea: 2466 columna: 1.
      2643         810  810                                     ; Archivo: LinkedSearchBinaryTree.txt línea: 2466 columna: 6.
      2644          32  SWAP                                    ; Archivo: LinkedSearchBinaryTree.txt línea: 2467 columna: 1.
      2645           1  PUSH                                    ; Archivo: LinkedSearchBinaryTree.txt línea: 2468 columna: 1.
      2646        2845  VT_Main                                 ; Archivo: LinkedSearchBinaryTree.txt línea: 2468 columna: 6.
      2647          82  LOADREF                                 ; Archivo: LinkedSearchBinaryTree.txt línea: 2469 columna: 1.
      2648           1  1                                       ; Archivo: LinkedSearchBinaryTree.txt línea: 2469 columna: 9.
      2649         100  CALL                                    ; Archivo: LinkedSearchBinaryTree.txt línea: 2470 columna: 1.
      2650          80  LOAD                                    ; Archivo: LinkedSearchBinaryTree.txt línea: 2472 columna: 1.
      2651           3  3                                       ; Archivo: LinkedSearchBinaryTree.txt línea: 2472 columna: 6.
      2652          80  LOAD                                    ; Archivo: LinkedSearchBinaryTree.txt línea: 2474 columna: 1.
      2653           0  0                                       ; Archivo: LinkedSearchBinaryTree.txt línea: 2474 columna: 6.
      2654          32  SWAP                                    ; Archivo: LinkedSearchBinaryTree.txt línea: 2475 columna: 1.
      2655           1  PUSH                                    ; Archivo: LinkedSearchBinaryTree.txt línea: 2477 columna: 1.
      2656         901  901                                     ; Archivo: LinkedSearchBinaryTree.txt línea: 2477 columna: 6.
      2657          32  SWAP                                    ; Archivo: LinkedSearchBinaryTree.txt línea: 2478 columna: 1.
      2658           1  PUSH                                    ; Archivo: LinkedSearchBinaryTree.txt línea: 2479 columna: 1.
      2659        2845  VT_Main                                 ; Archivo: LinkedSearchBinaryTree.txt línea: 2479 columna: 6.
      2660          82  LOADREF                                 ; Archivo: LinkedSearchBinaryTree.txt línea: 2480 columna: 1.
      2661           1  1                                       ; Archivo: LinkedSearchBinaryTree.txt línea: 2480 columna: 9.
      2662         100  CALL                                    ; Archivo: LinkedSearchBinaryTree.txt línea: 2481 columna: 1.
      2663         101  RMEM                                    ; Archivo: LinkedSearchBinaryTree.txt línea: 2483 columna: 1.
      2664           1  1                                       ; Archivo: LinkedSearchBinaryTree.txt línea: 2483 columna: 6.
      2665           1  PUSH                                    ; Archivo: LinkedSearchBinaryTree.txt línea: 2486 columna: 1.
      2666          66  L_MET_System_println                    ; Archivo: LinkedSearchBinaryTree.txt línea: 2486 columna: 6.
      2667         100  CALL                                    ; Archivo: LinkedSearchBinaryTree.txt línea: 2487 columna: 1.
      2668          80  LOAD                                    ; Archivo: LinkedSearchBinaryTree.txt línea: 2489 columna: 1.
      2669           3  3                                       ; Archivo: LinkedSearchBinaryTree.txt línea: 2489 columna: 6.
      2670          80  LOAD                                    ; Archivo: LinkedSearchBinaryTree.txt línea: 2491 columna: 1.
      2671           0  0                                       ; Archivo: LinkedSearchBinaryTree.txt línea: 2491 columna: 6.
      2672          32  SWAP                                    ; Archivo: LinkedSearchBinaryTree.txt línea: 2492 columna: 1.
      2673           1  PUSH                                    ; Archivo: LinkedSearchBinaryTree.txt línea: 2494 columna: 1.
      2674         543  543                                     ; Archivo: LinkedSearchBinaryTree.txt línea: 2494 columna: 6.
      2675          32  SWAP                                    ; Archivo: LinkedSearchBinaryTree.txt línea: 2495 columna: 1.
      2676           1  PUSH                                    ; Archivo: LinkedSearchBinaryTree.txt línea: 2496 columna: 1.
      2677        2845  VT_Main                                 ; Archivo: LinkedSearchBinaryTree.txt línea: 2496 columna: 6.
      2678          82  LOADREF                                 ; Archivo: LinkedSearchBinaryTree.txt línea: 2497 columna: 1.
      2679           2  2                                       ; Archivo: LinkedSearchBinaryTree.txt línea: 2497 columna: 9.
      2680         100  CALL                                    ; Archivo: LinkedSearchBinaryTree.txt línea: 2498 columna: 1.
      2681          80  LOAD                                    ; Archivo: LinkedSearchBinaryTree.txt línea: 2500 columna: 1.
      2682           3  3                                       ; Archivo: LinkedSearchBinaryTree.txt línea: 2500 columna: 6.
      2683          80  LOAD                                    ; Archivo: LinkedSearchBinaryTree.txt línea: 2502 columna: 1.
      2684           0  0                                       ; Archivo: LinkedSearchBinaryTree.txt línea: 2502 columna: 6.
      2685          32  SWAP                                    ; Archivo: LinkedSearchBinaryTree.txt línea: 2503 columna: 1.
      2686           1  PUSH                                    ; Archivo: LinkedSearchBinaryTree.txt línea: 2505 columna: 1.
      2687         320  320                                     ; Archivo: LinkedSearchBinaryTree.txt línea: 2505 columna: 6.
      2688          32  SWAP                                    ; Archivo: LinkedSearchBinaryTree.txt línea: 2506 columna: 1.
      2689           1  PUSH                                    ; Archivo: LinkedSearchBinaryTree.txt línea: 2507 columna: 1.
      2690        2845  VT_Main                                 ; Archivo: LinkedSearchBinaryTree.txt línea: 2507 columna: 6.
      2691          82  LOADREF                                 ; Archivo: LinkedSearchBinaryTree.txt línea: 2508 columna: 1.
      2692           2  2                                       ; Archivo: LinkedSearchBinaryTree.txt línea: 2508 columna: 9.
      2693         100  CALL                                    ; Archivo: LinkedSearchBinaryTree.txt línea: 2509 columna: 1.
      2694          80  LOAD                                    ; Archivo: LinkedSearchBinaryTree.txt línea: 2511 columna: 1.
      2695           3  3                                       ; Archivo: LinkedSearchBinaryTree.txt línea: 2511 columna: 6.
      2696          80  LOAD                                    ; Archivo: LinkedSearchBinaryTree.txt línea: 2513 columna: 1.
      2697           0  0                                       ; Archivo: LinkedSearchBinaryTree.txt línea: 2513 columna: 6.
      2698          32  SWAP                                    ; Archivo: LinkedSearchBinaryTree.txt línea: 2514 columna: 1.
      2699           1  PUSH                                    ; Archivo: LinkedSearchBinaryTree.txt línea: 2516 columna: 1.
      2700         901  901                                     ; Archivo: LinkedSearchBinaryTree.txt línea: 2516 columna: 6.
      2701          32  SWAP                                    ; Archivo: LinkedSearchBinaryTree.txt línea: 2517 columna: 1.
      2702           1  PUSH                                    ; Archivo: LinkedSearchBinaryTree.txt línea: 2518 columna: 1.
      2703        2845  VT_Main                                 ; Archivo: LinkedSearchBinaryTree.txt línea: 2518 columna: 6.
      2704          82  LOADREF                                 ; Archivo: LinkedSearchBinaryTree.txt línea: 2519 columna: 1.
      2705           2  2                                       ; Archivo: LinkedSearchBinaryTree.txt línea: 2519 columna: 9.
      2706         100  CALL                                    ; Archivo: LinkedSearchBinaryTree.txt línea: 2520 columna: 1.
      2707         101  RMEM                                    ; Archivo: LinkedSearchBinaryTree.txt línea: 2522 columna: 1.
      2708           1  1                                       ; Archivo: LinkedSearchBinaryTree.txt línea: 2522 columna: 6.
      2709           1  PUSH                                    ; Archivo: LinkedSearchBinaryTree.txt línea: 2525 columna: 1.
      2710          66  L_MET_System_println                    ; Archivo: LinkedSearchBinaryTree.txt línea: 2525 columna: 6.
      2711         100  CALL                                    ; Archivo: LinkedSearchBinaryTree.txt línea: 2526 columna: 1.
      2712          80  LOAD                                    ; Archivo: LinkedSearchBinaryTree.txt línea: 2528 columna: 1.
      2713           3  3                                       ; Archivo: LinkedSearchBinaryTree.txt línea: 2528 columna: 6.
      2714          80  LOAD                                    ; Archivo: LinkedSearchBinaryTree.txt línea: 2530 columna: 1.
      2715           0  0                                       ; Archivo: LinkedSearchBinaryTree.txt línea: 2530 columna: 6.
      2716          32  SWAP                                    ; Archivo: LinkedSearchBinaryTree.txt línea: 2531 columna: 1.
      2717           1  PUSH                                    ; Archivo: LinkedSearchBinaryTree.txt línea: 2533 columna: 1.
      2718         543  543                                     ; Archivo: LinkedSearchBinaryTree.txt línea: 2533 columna: 6.
      2719          32  SWAP                                    ; Archivo: LinkedSearchBinaryTree.txt línea: 2534 columna: 1.
      2720           1  PUSH                                    ; Archivo: LinkedSearchBinaryTree.txt línea: 2535 columna: 1.
      2721        2845  VT_Main                                 ; Archivo: LinkedSearchBinaryTree.txt línea: 2535 columna: 6.
      2722          82  LOADREF                                 ; Archivo: LinkedSearchBinaryTree.txt línea: 2536 columna: 1.
      2723           1  1                                       ; Archivo: LinkedSearchBinaryTree.txt línea: 2536 columna: 9.
      2724         100  CALL                                    ; Archivo: LinkedSearchBinaryTree.txt línea: 2537 columna: 1.
      2725          80  LOAD                                    ; Archivo: LinkedSearchBinaryTree.txt línea: 2539 columna: 1.
      2726           3  3                                       ; Archivo: LinkedSearchBinaryTree.txt línea: 2539 columna: 6.
      2727          80  LOAD                                    ; Archivo: LinkedSearchBinaryTree.txt línea: 2541 columna: 1.
      2728           0  0                                       ; Archivo: LinkedSearchBinaryTree.txt línea: 2541 columna: 6.
      2729          32  SWAP                                    ; Archivo: LinkedSearchBinaryTree.txt línea: 2542 columna: 1.
      2730           1  PUSH                                    ; Archivo: LinkedSearchBinaryTree.txt línea: 2544 columna: 1.
      2731         901  901                                     ; Archivo: LinkedSearchBinaryTree.txt línea: 2544 columna: 6.
      2732          32  SWAP                                    ; Archivo: LinkedSearchBinaryTree.txt línea: 2545 columna: 1.
      2733           1  PUSH                                    ; Archivo: LinkedSearchBinaryTree.txt línea: 2546 columna: 1.
      2734        2845  VT_Main                                 ; Archivo: LinkedSearchBinaryTree.txt línea: 2546 columna: 6.
      2735          82  LOADREF                                 ; Archivo: LinkedSearchBinaryTree.txt línea: 2547 columna: 1.
      2736           1  1                                       ; Archivo: LinkedSearchBinaryTree.txt línea: 2547 columna: 9.
      2737         100  CALL                                    ; Archivo: LinkedSearchBinaryTree.txt línea: 2548 columna: 1.
      2738          80  LOAD                                    ; Archivo: LinkedSearchBinaryTree.txt línea: 2550 columna: 1.
      2739           3  3                                       ; Archivo: LinkedSearchBinaryTree.txt línea: 2550 columna: 6.
      2740          80  LOAD                                    ; Archivo: LinkedSearchBinaryTree.txt línea: 2552 columna: 1.
      2741           0  0                                       ; Archivo: LinkedSearchBinaryTree.txt línea: 2552 columna: 6.
      2742          32  SWAP                                    ; Archivo: LinkedSearchBinaryTree.txt línea: 2553 columna: 1.
      2743           1  PUSH                                    ; Archivo: LinkedSearchBinaryTree.txt línea: 2555 columna: 1.
      2744         320  320                                     ; Archivo: LinkedSearchBinaryTree.txt línea: 2555 columna: 6.
      2745          32  SWAP                                    ; Archivo: LinkedSearchBinaryTree.txt línea: 2556 columna: 1.
      2746           1  PUSH                                    ; Archivo: LinkedSearchBinaryTree.txt línea: 2557 columna: 1.
      2747        2845  VT_Main                                 ; Archivo: LinkedSearchBinaryTree.txt línea: 2557 columna: 6.
      2748          82  LOADREF                                 ; Archivo: LinkedSearchBinaryTree.txt línea: 2558 columna: 1.
      2749           1  1                                       ; Archivo: LinkedSearchBinaryTree.txt línea: 2558 columna: 9.
      2750         100  CALL                                    ; Archivo: LinkedSearchBinaryTree.txt línea: 2559 columna: 1.
      2751          80  LOAD                                    ; Archivo: LinkedSearchBinaryTree.txt línea: 2561 columna: 1.
      2752           3  3                                       ; Archivo: LinkedSearchBinaryTree.txt línea: 2561 columna: 6.
      2753          80  LOAD                                    ; Archivo: LinkedSearchBinaryTree.txt línea: 2563 columna: 1.
      2754           0  0                                       ; Archivo: LinkedSearchBinaryTree.txt línea: 2563 columna: 6.
      2755          32  SWAP                                    ; Archivo: LinkedSearchBinaryTree.txt línea: 2564 columna: 1.
      2756           1  PUSH                                    ; Archivo: LinkedSearchBinaryTree.txt línea: 2566 columna: 1.
      2757          43  43                                      ; Archivo: LinkedSearchBinaryTree.txt línea: 2566 columna: 6.
      2758          32  SWAP                                    ; Archivo: LinkedSearchBinaryTree.txt línea: 2567 columna: 1.
      2759           1  PUSH                                    ; Archivo: LinkedSearchBinaryTree.txt línea: 2568 columna: 1.
      2760        2845  VT_Main                                 ; Archivo: LinkedSearchBinaryTree.txt línea: 2568 columna: 6.
      2761          82  LOADREF                                 ; Archivo: LinkedSearchBinaryTree.txt línea: 2569 columna: 1.
      2762           1  1                                       ; Archivo: LinkedSearchBinaryTree.txt línea: 2569 columna: 9.
      2763         100  CALL                                    ; Archivo: LinkedSearchBinaryTree.txt línea: 2570 columna: 1.
      2764          80  LOAD                                    ; Archivo: LinkedSearchBinaryTree.txt línea: 2572 columna: 1.
      2765           3  3                                       ; Archivo: LinkedSearchBinaryTree.txt línea: 2572 columna: 6.
      2766          80  LOAD                                    ; Archivo: LinkedSearchBinaryTree.txt línea: 2574 columna: 1.
      2767           0  0                                       ; Archivo: LinkedSearchBinaryTree.txt línea: 2574 columna: 6.
      2768          32  SWAP                                    ; Archivo: LinkedSearchBinaryTree.txt línea: 2575 columna: 1.
      2769           1  PUSH                                    ; Archivo: LinkedSearchBinaryTree.txt línea: 2577 columna: 1.
      2770          12  12                                      ; Archivo: LinkedSearchBinaryTree.txt línea: 2577 columna: 6.
      2771          32  SWAP                                    ; Archivo: LinkedSearchBinaryTree.txt línea: 2578 columna: 1.
      2772           1  PUSH                                    ; Archivo: LinkedSearchBinaryTree.txt línea: 2579 columna: 1.
      2773        2845  VT_Main                                 ; Archivo: LinkedSearchBinaryTree.txt línea: 2579 columna: 6.
      2774          82  LOADREF                                 ; Archivo: LinkedSearchBinaryTree.txt línea: 2580 columna: 1.
      2775           1  1                                       ; Archivo: LinkedSearchBinaryTree.txt línea: 2580 columna: 9.
      2776         100  CALL                                    ; Archivo: LinkedSearchBinaryTree.txt línea: 2581 columna: 1.
      2777         102  FMEM                                    ; Archivo: LinkedSearchBinaryTree.txt línea: 2582 columna: 1.
      2778           1  1                                       ; Archivo: LinkedSearchBinaryTree.txt línea: 2582 columna: 6.
      2779         125  STOREFP                                 ; Archivo: LinkedSearchBinaryTree.txt línea: 2583 columna: 1.
      2780         103  RET                                     ; Archivo: LinkedSearchBinaryTree.txt línea: 2584 columna: 1.
      2781           1  1                                       ; Archivo: LinkedSearchBinaryTree.txt línea: 2584 columna: 5.

----------- Sección .DATA ----------------------------------------------------------------
Dirección   Cont.Mem.   Código CeIASM                           Referencia

      2782           0  VT_Object: NOP                          ; Archivo: LinkedSearchBinaryTree.txt línea: 2 columna: 12.
      2783           9  VT_System: L_MET_System_Ctor            ; Archivo: LinkedSearchBinaryTree.txt línea: 3 columna: 15.
      2784          16  L_MET_System_read                       ; Archivo: LinkedSearchBinaryTree.txt línea: 3 columna: 34.
      2785          26  L_MET_System_printI                     ; Archivo: LinkedSearchBinaryTree.txt línea: 3 columna: 53.
      2786          36  L_MET_System_printC                     ; Archivo: LinkedSearchBinaryTree.txt línea: 3 columna: 74.
      2787          46  L_MET_System_printB                     ; Archivo: LinkedSearchBinaryTree.txt línea: 3 columna: 95.
      2788          56  L_MET_System_printS                     ; Archivo: LinkedSearchBinaryTree.txt línea: 3 columna: 116.
      2789          66  L_MET_System_println                    ; Archivo: LinkedSearchBinaryTree.txt línea: 3 columna: 137.
      2790          74  L_MET_System_printBln                   ; Archivo: LinkedSearchBinaryTree.txt línea: 3 columna: 159.
      2791          85  L_MET_System_printCln                   ; Archivo: LinkedSearchBinaryTree.txt línea: 3 columna: 182.
      2792          96  L_MET_System_printIln                   ; Archivo: LinkedSearchBinaryTree.txt línea: 3 columna: 205.
      2793         107  L_MET_System_printSln                   ; Archivo: LinkedSearchBinaryTree.txt línea: 3 columna: 228.
      2794         151  VT_LinkedBinaryTree: L_MET_LinkedBinaryTree_LinkedBinaryTree_init; Archivo: LinkedSearchBinaryTree.txt línea: 115 columna: 25.
      2795         171  L_MET_LinkedBinaryTree_size             ; Archivo: LinkedSearchBinaryTree.txt línea: 115 columna: 71.
      2796         186  L_MET_LinkedBinaryTree_isEmpty          ; Archivo: LinkedSearchBinaryTree.txt línea: 115 columna: 100.
      2797         204  L_MET_LinkedBinaryTree_replace          ; Archivo: LinkedSearchBinaryTree.txt línea: 115 columna: 132.
      2798         247  L_MET_LinkedBinaryTree_root             ; Archivo: LinkedSearchBinaryTree.txt línea: 115 columna: 164.
      2799         283  L_MET_LinkedBinaryTree_parent           ; Archivo: LinkedSearchBinaryTree.txt línea: 115 columna: 193.
      2800         322  L_MET_LinkedBinaryTree_isInternal       ; Archivo: LinkedSearchBinaryTree.txt línea: 115 columna: 224.
      2801         362  L_MET_LinkedBinaryTree_isExternal       ; Archivo: LinkedSearchBinaryTree.txt línea: 115 columna: 259.
      2802         388  L_MET_LinkedBinaryTree_isRoot           ; Archivo: LinkedSearchBinaryTree.txt línea: 115 columna: 294.
      2803         406  L_MET_LinkedBinaryTree_setRoot          ; Archivo: LinkedSearchBinaryTree.txt línea: 115 columna: 325.
      2804         478  L_MET_LinkedBinaryTree_addLeft          ; Archivo: LinkedSearchBinaryTree.txt línea: 115 columna: 357.
      2805         578  L_MET_LinkedBinaryTree_addRight         ; Archivo: LinkedSearchBinaryTree.txt línea: 115 columna: 389.
      2806         678  L_MET_LinkedBinaryTree_left             ; Archivo: LinkedSearchBinaryTree.txt línea: 115 columna: 422.
      2807         724  L_MET_LinkedBinaryTree_right            ; Archivo: LinkedSearchBinaryTree.txt línea: 115 columna: 451.
      2808         770  L_MET_LinkedBinaryTree_hasLeft          ; Archivo: LinkedSearchBinaryTree.txt línea: 115 columna: 481.
      2809         795  L_MET_LinkedBinaryTree_hasRight         ; Archivo: LinkedSearchBinaryTree.txt línea: 115 columna: 513.
      2810         834  VT_LinkedSearchBinaryTree: L_MET_LinkedSearchBinaryTree_find; Archivo: LinkedSearchBinaryTree.txt línea: 770 columna: 31.
      2811         917  L_MET_LinkedSearchBinaryTree_insert     ; Archivo: LinkedSearchBinaryTree.txt línea: 770 columna: 66.
      2812        1039  L_MET_LinkedSearchBinaryTree_remove     ; Archivo: LinkedSearchBinaryTree.txt línea: 770 columna: 103.
      2813        1280  L_MET_LinkedSearchBinaryTree_treeSearch ; Archivo: LinkedSearchBinaryTree.txt línea: 770 columna: 140.
      2814        1437  L_MET_LinkedSearchBinaryTree_treeInsert ; Archivo: LinkedSearchBinaryTree.txt línea: 770 columna: 181.
      2815        1522  L_MET_LinkedSearchBinaryTree_insertExternalNode; Archivo: LinkedSearchBinaryTree.txt línea: 770 columna: 222.
      2816        1611  L_MET_LinkedSearchBinaryTree_removeExternal; Archivo: LinkedSearchBinaryTree.txt línea: 770 columna: 271.
      2817        1750  L_MET_LinkedSearchBinaryTree_removeMin  ; Archivo: LinkedSearchBinaryTree.txt línea: 770 columna: 316.
      2818         151  L_MET_LinkedBinaryTree_LinkedBinaryTree_init; Archivo: LinkedSearchBinaryTree.txt línea: 770 columna: 356.
      2819         171  L_MET_LinkedBinaryTree_size             ; Archivo: LinkedSearchBinaryTree.txt línea: 770 columna: 402.
      2820         186  L_MET_LinkedBinaryTree_isEmpty          ; Archivo: LinkedSearchBinaryTree.txt línea: 770 columna: 431.
      2821         204  L_MET_LinkedBinaryTree_replace          ; Archivo: LinkedSearchBinaryTree.txt línea: 770 columna: 463.
      2822         247  L_MET_LinkedBinaryTree_root             ; Archivo: LinkedSearchBinaryTree.txt línea: 770 columna: 495.
      2823         283  L_MET_LinkedBinaryTree_parent           ; Archivo: LinkedSearchBinaryTree.txt línea: 770 columna: 524.
      2824         322  L_MET_LinkedBinaryTree_isInternal       ; Archivo: LinkedSearchBinaryTree.txt línea: 770 columna: 555.
      2825         362  L_MET_LinkedBinaryTree_isExternal       ; Archivo: LinkedSearchBinaryTree.txt línea: 770 columna: 590.
      2826         388  L_MET_LinkedBinaryTree_isRoot           ; Archivo: LinkedSearchBinaryTree.txt línea: 770 columna: 625.
      2827         406  L_MET_LinkedBinaryTree_setRoot          ; Archivo: LinkedSearchBinaryTree.txt línea: 770 columna: 656.
      2828         478  L_MET_LinkedBinaryTree_addLeft          ; Archivo: LinkedSearchBinaryTree.txt línea: 770 columna: 688.
      2829         578  L_MET_LinkedBinaryTree_addRight         ; Archivo: LinkedSearchBinaryTree.txt línea: 770 columna: 720.
      2830         678  L_MET_LinkedBinaryTree_left             ; Archivo: LinkedSearchBinaryTree.txt línea: 770 columna: 753.
      2831         724  L_MET_LinkedBinaryTree_right            ; Archivo: LinkedSearchBinaryTree.txt línea: 770 columna: 782.
      2832         770  L_MET_LinkedBinaryTree_hasLeft          ; Archivo: LinkedSearchBinaryTree.txt línea: 770 columna: 812.
      2833         795  L_MET_LinkedBinaryTree_hasRight         ; Archivo: LinkedSearchBinaryTree.txt línea: 770 columna: 844.
      2834        1915  VT_Node: L_MET_Node_setParent           ; Archivo: LinkedSearchBinaryTree.txt línea: 1672 columna: 13.
      2835        1928  L_MET_Node_setLeft                      ; Archivo: LinkedSearchBinaryTree.txt línea: 1672 columna: 35.
      2836        1941  L_MET_Node_setRight                     ; Archivo: LinkedSearchBinaryTree.txt línea: 1672 columna: 55.
      2837        1954  L_MET_Node_setEntry                     ; Archivo: LinkedSearchBinaryTree.txt línea: 1672 columna: 76.
      2838        1967  L_MET_Node_getParent                    ; Archivo: LinkedSearchBinaryTree.txt línea: 1672 columna: 97.
      2839        1982  L_MET_Node_getEntry                     ; Archivo: LinkedSearchBinaryTree.txt línea: 1672 columna: 119.
      2840        1997  L_MET_Node_getLeft                      ; Archivo: LinkedSearchBinaryTree.txt línea: 1672 columna: 140.
      2841        2012  L_MET_Node_getRight                     ; Archivo: LinkedSearchBinaryTree.txt línea: 1672 columna: 160.
      2842        2047  VT_Entry: L_MET_Entry_getKey            ; Archivo: LinkedSearchBinaryTree.txt línea: 1829 columna: 14.
      2843        2062  L_MET_Entry_getElement                  ; Archivo: LinkedSearchBinaryTree.txt línea: 1829 columna: 34.
      2844        2077  L_MET_Entry_setElement                  ; Archivo: LinkedSearchBinaryTree.txt línea: 1829 columna: 58.
      2845        2096  VT_Main: L_MET_Main_insert              ; Archivo: LinkedSearchBinaryTree.txt línea: 1893 columna: 13.
      2846        2149  L_MET_Main_obtener                      ; Archivo: LinkedSearchBinaryTree.txt línea: 1893 columna: 32.
      2847        2240  L_MET_Main_eliminar                     ; Archivo: LinkedSearchBinaryTree.txt línea: 1893 columna: 52.
      2848        2290  L_MET_Main_main                         ; Archivo: LinkedSearchBinaryTree.txt línea: 1893 columna: 73.
      2849          32  lString22_insert_Main: ' '              ; Archivo: LinkedSearchBinaryTree.txt línea: 1936 columna: 27.
      2850          45  '-'                                     ; Archivo: LinkedSearchBinaryTree.txt línea: 1936 columna: 27.
      2851          62  '>'                                     ; Archivo: LinkedSearchBinaryTree.txt línea: 1936 columna: 27.
      2852          32  ' '                                     ; Archivo: LinkedSearchBinaryTree.txt línea: 1936 columna: 27.
      2853           0  0                                       ; Archivo: LinkedSearchBinaryTree.txt línea: 1936 columna: 35.
      2854          79  lString23_obtener_Main: 'O'             ; Archivo: LinkedSearchBinaryTree.txt línea: 1970 columna: 28.
      2855          98  'b'                                     ; Archivo: LinkedSearchBinaryTree.txt línea: 1970 columna: 28.
      2856         116  't'                                     ; Archivo: LinkedSearchBinaryTree.txt línea: 1970 columna: 28.
      2857         101  'e'                                     ; Archivo: LinkedSearchBinaryTree.txt línea: 1970 columna: 28.
      2858         110  'n'                                     ; Archivo: LinkedSearchBinaryTree.txt línea: 1970 columna: 28.
      2859         101  'e'                                     ; Archivo: LinkedSearchBinaryTree.txt línea: 1970 columna: 28.
      2860         114  'r'                                     ; Archivo: LinkedSearchBinaryTree.txt línea: 1970 columna: 28.
      2861          58  ':'                                     ; Archivo: LinkedSearchBinaryTree.txt línea: 1970 columna: 28.
      2862          32  ' '                                     ; Archivo: LinkedSearchBinaryTree.txt línea: 1970 columna: 28.
      2863           0  0                                       ; Archivo: LinkedSearchBinaryTree.txt línea: 1970 columna: 41.
      2864          32  lString24_obtener_Main: ' '             ; Archivo: LinkedSearchBinaryTree.txt línea: 1990 columna: 28.
      2865          62  '>'                                     ; Archivo: LinkedSearchBinaryTree.txt línea: 1990 columna: 28.
      2866          32  ' '                                     ; Archivo: LinkedSearchBinaryTree.txt línea: 1990 columna: 28.
      2867           0  0                                       ; Archivo: LinkedSearchBinaryTree.txt línea: 1990 columna: 35.
      2868          78  lString26_obtener_Main: 'N'             ; Archivo: LinkedSearchBinaryTree.txt línea: 2043 columna: 28.
      2869         111  'o'                                     ; Archivo: LinkedSearchBinaryTree.txt línea: 2043 columna: 28.
      2870          32  ' '                                     ; Archivo: LinkedSearchBinaryTree.txt línea: 2043 columna: 28.
      2871         115  's'                                     ; Archivo: LinkedSearchBinaryTree.txt línea: 2043 columna: 28.
      2872         101  'e'                                     ; Archivo: LinkedSearchBinaryTree.txt línea: 2043 columna: 28.
      2873          32  ' '                                     ; Archivo: LinkedSearchBinaryTree.txt línea: 2043 columna: 28.
      2874         104  'h'                                     ; Archivo: LinkedSearchBinaryTree.txt línea: 2043 columna: 28.
      2875          97  'a'                                     ; Archivo: LinkedSearchBinaryTree.txt línea: 2043 columna: 28.
      2876          32  ' '                                     ; Archivo: LinkedSearchBinaryTree.txt línea: 2043 columna: 28.
      2877         101  'e'                                     ; Archivo: LinkedSearchBinaryTree.txt línea: 2043 columna: 28.
      2878         110  'n'                                     ; Archivo: LinkedSearchBinaryTree.txt línea: 2043 columna: 28.
      2879          99  'c'                                     ; Archivo: LinkedSearchBinaryTree.txt línea: 2043 columna: 28.
      2880         111  'o'                                     ; Archivo: LinkedSearchBinaryTree.txt línea: 2043 columna: 28.
      2881         110  'n'                                     ; Archivo: LinkedSearchBinaryTree.txt línea: 2043 columna: 28.
      2882         116  't'                                     ; Archivo: LinkedSearchBinaryTree.txt línea: 2043 columna: 28.
      2883         114  'r'                                     ; Archivo: LinkedSearchBinaryTree.txt línea: 2043 columna: 28.
      2884          97  'a'                                     ; Archivo: LinkedSearchBinaryTree.txt línea: 2043 columna: 28.
      2885         100  'd'                                     ; Archivo: LinkedSearchBinaryTree.txt línea: 2043 columna: 28.
      2886         111  'o'                                     ; Archivo: LinkedSearchBinaryTree.txt línea: 2043 columna: 28.
      2887          46  '.'                                     ; Archivo: LinkedSearchBinaryTree.txt línea: 2043 columna: 28.
      2888           0  0                                       ; Archivo: LinkedSearchBinaryTree.txt línea: 2043 columna: 52.
      2889          69  lString27_eliminar_Main: 'E'            ; Archivo: LinkedSearchBinaryTree.txt línea: 2069 columna: 29.
      2890         108  'l'                                     ; Archivo: LinkedSearchBinaryTree.txt línea: 2069 columna: 29.
      2891         105  'i'                                     ; Archivo: LinkedSearchBinaryTree.txt línea: 2069 columna: 29.
      2892         109  'm'                                     ; Archivo: LinkedSearchBinaryTree.txt línea: 2069 columna: 29.
      2893         105  'i'                                     ; Archivo: LinkedSearchBinaryTree.txt línea: 2069 columna: 29.
      2894         110  'n'                                     ; Archivo: LinkedSearchBinaryTree.txt línea: 2069 columna: 29.
      2895          97  'a'                                     ; Archivo: LinkedSearchBinaryTree.txt línea: 2069 columna: 29.
      2896         114  'r'                                     ; Archivo: LinkedSearchBinaryTree.txt línea: 2069 columna: 29.
      2897          32  ' '                                     ; Archivo: LinkedSearchBinaryTree.txt línea: 2069 columna: 29.
      2898           0  0                                       ; Archivo: LinkedSearchBinaryTree.txt línea: 2069 columna: 42.
      2899          46  lString28_eliminar_Main: '.'            ; Archivo: LinkedSearchBinaryTree.txt línea: 2089 columna: 29.
      2900           0  0                                       ; Archivo: LinkedSearchBinaryTree.txt línea: 2089 columna: 34.
      2901          83  lString29_main_Main: 'S'                ; Archivo: LinkedSearchBinaryTree.txt línea: 2128 columna: 25.
      2902         101  'e'                                     ; Archivo: LinkedSearchBinaryTree.txt línea: 2128 columna: 25.
      2903          32  ' '                                     ; Archivo: LinkedSearchBinaryTree.txt línea: 2128 columna: 25.
      2904         105  'i'                                     ; Archivo: LinkedSearchBinaryTree.txt línea: 2128 columna: 25.
      2905         110  'n'                                     ; Archivo: LinkedSearchBinaryTree.txt línea: 2128 columna: 25.
      2906         115  's'                                     ; Archivo: LinkedSearchBinaryTree.txt línea: 2128 columna: 25.
      2907         101  'e'                                     ; Archivo: LinkedSearchBinaryTree.txt línea: 2128 columna: 25.
      2908         114  'r'                                     ; Archivo: LinkedSearchBinaryTree.txt línea: 2128 columna: 25.
      2909         116  't'                                     ; Archivo: LinkedSearchBinaryTree.txt línea: 2128 columna: 25.
      2910          97  'a'                                     ; Archivo: LinkedSearchBinaryTree.txt línea: 2128 columna: 25.
      2911         114  'r'                                     ; Archivo: LinkedSearchBinaryTree.txt línea: 2128 columna: 25.
      2912          97  'a'                                     ; Archivo: LinkedSearchBinaryTree.txt línea: 2128 columna: 25.
      2913         110  'n'                                     ; Archivo: LinkedSearchBinaryTree.txt línea: 2128 columna: 25.
      2914          32  ' '                                     ; Archivo: LinkedSearchBinaryTree.txt línea: 2128 columna: 25.
      2915         108  'l'                                     ; Archivo: LinkedSearchBinaryTree.txt línea: 2128 columna: 25.
      2916         111  'o'                                     ; Archivo: LinkedSearchBinaryTree.txt línea: 2128 columna: 25.
      2917         115  's'                                     ; Archivo: LinkedSearchBinaryTree.txt línea: 2128 columna: 25.
      2918          32  ' '                                     ; Archivo: LinkedSearchBinaryTree.txt línea: 2128 columna: 25.
      2919         115  's'                                     ; Archivo: LinkedSearchBinaryTree.txt línea: 2128 columna: 25.
      2920         105  'i'                                     ; Archivo: LinkedSearchBinaryTree.txt línea: 2128 columna: 25.
      2921         103  'g'                                     ; Archivo: LinkedSearchBinaryTree.txt línea: 2128 columna: 25.
      2922         117  'u'                                     ; Archivo: LinkedSearchBinaryTree.txt línea: 2128 columna: 25.
      2923         105  'i'                                     ; Archivo: LinkedSearchBinaryTree.txt línea: 2128 columna: 25.
      2924         101  'e'                                     ; Archivo: LinkedSearchBinaryTree.txt línea: 2128 columna: 25.
      2925         110  'n'                                     ; Archivo: LinkedSearchBinaryTree.txt línea: 2128 columna: 25.
      2926         116  't'                                     ; Archivo: LinkedSearchBinaryTree.txt línea: 2128 columna: 25.
      2927         101  'e'                                     ; Archivo: LinkedSearchBinaryTree.txt línea: 2128 columna: 25.
      2928         115  's'                                     ; Archivo: LinkedSearchBinaryTree.txt línea: 2128 columna: 25.
      2929          32  ' '                                     ; Archivo: LinkedSearchBinaryTree.txt línea: 2128 columna: 25.
      2930          97  'a'                                     ; Archivo: LinkedSearchBinaryTree.txt línea: 2128 columna: 25.
      2931         110  'n'                                     ; Archivo: LinkedSearchBinaryTree.txt línea: 2128 columna: 25.
      2932         105  'i'                                     ; Archivo: LinkedSearchBinaryTree.txt línea: 2128 columna: 25.
      2933         109  'm'                                     ; Archivo: LinkedSearchBinaryTree.txt línea: 2128 columna: 25.
      2934          97  'a'                                     ; Archivo: LinkedSearchBinaryTree.txt línea: 2128 columna: 25.
      2935         108  'l'                                     ; Archivo: LinkedSearchBinaryTree.txt línea: 2128 columna: 25.
      2936         101  'e'                                     ; Archivo: LinkedSearchBinaryTree.txt línea: 2128 columna: 25.
      2937         115  's'                                     ; Archivo: LinkedSearchBinaryTree.txt línea: 2128 columna: 25.
      2938          58  ':'                                     ; Archivo: LinkedSearchBinaryTree.txt línea: 2128 columna: 25.
      2939          32  ' '                                     ; Archivo: LinkedSearchBinaryTree.txt línea: 2128 columna: 25.
      2940           0  0                                       ; Archivo: LinkedSearchBinaryTree.txt línea: 2128 columna: 68.
      2941          79  lString30_main_Main: 'O'                ; Archivo: LinkedSearchBinaryTree.txt línea: 2158 columna: 25.
      2942         115  's'                                     ; Archivo: LinkedSearchBinaryTree.txt línea: 2158 columna: 25.
      2943         111  'o'                                     ; Archivo: LinkedSearchBinaryTree.txt línea: 2158 columna: 25.
      2944           0  0                                       ; Archivo: LinkedSearchBinaryTree.txt línea: 2158 columna: 32.
      2945          80  lString31_main_Main: 'P'                ; Archivo: LinkedSearchBinaryTree.txt línea: 2174 columna: 25.
      2946         101  'e'                                     ; Archivo: LinkedSearchBinaryTree.txt línea: 2174 columna: 25.
      2947         114  'r'                                     ; Archivo: LinkedSearchBinaryTree.txt línea: 2174 columna: 25.
      2948         114  'r'                                     ; Archivo: LinkedSearchBinaryTree.txt línea: 2174 columna: 25.
      2949         111  'o'                                     ; Archivo: LinkedSearchBinaryTree.txt línea: 2174 columna: 25.
      2950           0  0                                       ; Archivo: LinkedSearchBinaryTree.txt línea: 2174 columna: 34.
      2951          69  lString32_main_Main: 'E'                ; Archivo: LinkedSearchBinaryTree.txt línea: 2190 columna: 25.
      2952         108  'l'                                     ; Archivo: LinkedSearchBinaryTree.txt línea: 2190 columna: 25.
      2953         101  'e'                                     ; Archivo: LinkedSearchBinaryTree.txt línea: 2190 columna: 25.
      2954         102  'f'                                     ; Archivo: LinkedSearchBinaryTree.txt línea: 2190 columna: 25.
      2955          97  'a'                                     ; Archivo: LinkedSearchBinaryTree.txt línea: 2190 columna: 25.
      2956         110  'n'                                     ; Archivo: LinkedSearchBinaryTree.txt línea: 2190 columna: 25.
      2957         116  't'                                     ; Archivo: LinkedSearchBinaryTree.txt línea: 2190 columna: 25.
      2958         101  'e'                                     ; Archivo: LinkedSearchBinaryTree.txt línea: 2190 columna: 25.
      2959           0  0                                       ; Archivo: LinkedSearchBinaryTree.txt línea: 2190 columna: 37.
      2960          75  lString33_main_Main: 'K'                ; Archivo: LinkedSearchBinaryTree.txt línea: 2206 columna: 25.
      2961         111  'o'                                     ; Archivo: LinkedSearchBinaryTree.txt línea: 2206 columna: 25.
      2962          97  'a'                                     ; Archivo: LinkedSearchBinaryTree.txt línea: 2206 columna: 25.
      2963         108  'l'                                     ; Archivo: LinkedSearchBinaryTree.txt línea: 2206 columna: 25.
      2964          97  'a'                                     ; Archivo: LinkedSearchBinaryTree.txt línea: 2206 columna: 25.
      2965           0  0                                       ; Archivo: LinkedSearchBinaryTree.txt línea: 2206 columna: 34.
      2966          76  lString34_main_Main: 'L'                ; Archivo: LinkedSearchBinaryTree.txt línea: 2222 columna: 25.
      2967         101  'e'                                     ; Archivo: LinkedSearchBinaryTree.txt línea: 2222 columna: 25.
      2968         111  'o'                                     ; Archivo: LinkedSearchBinaryTree.txt línea: 2222 columna: 25.
      2969         110  'n'                                     ; Archivo: LinkedSearchBinaryTree.txt línea: 2222 columna: 25.
      2970           0  0                                       ; Archivo: LinkedSearchBinaryTree.txt línea: 2222 columna: 33.
      2971          84  lString35_main_Main: 'T'                ; Archivo: LinkedSearchBinaryTree.txt línea: 2238 columna: 25.
      2972         105  'i'                                     ; Archivo: LinkedSearchBinaryTree.txt línea: 2238 columna: 25.
      2973         103  'g'                                     ; Archivo: LinkedSearchBinaryTree.txt línea: 2238 columna: 25.
      2974         114  'r'                                     ; Archivo: LinkedSearchBinaryTree.txt línea: 2238 columna: 25.
      2975         101  'e'                                     ; Archivo: LinkedSearchBinaryTree.txt línea: 2238 columna: 25.
      2976           0  0                                       ; Archivo: LinkedSearchBinaryTree.txt línea: 2238 columna: 34.
      2977          71  lString36_main_Main: 'G'                ; Archivo: LinkedSearchBinaryTree.txt línea: 2254 columna: 25.
      2978          97  'a'                                     ; Archivo: LinkedSearchBinaryTree.txt línea: 2254 columna: 25.
      2979         116  't'                                     ; Archivo: LinkedSearchBinaryTree.txt línea: 2254 columna: 25.
      2980         111  'o'                                     ; Archivo: LinkedSearchBinaryTree.txt línea: 2254 columna: 25.
      2981           0  0                                       ; Archivo: LinkedSearchBinaryTree.txt línea: 2254 columna: 33.
      2982          76  lString37_main_Main: 'L'                ; Archivo: LinkedSearchBinaryTree.txt línea: 2270 columna: 25.
      2983         101  'e'                                     ; Archivo: LinkedSearchBinaryTree.txt línea: 2270 columna: 25.
      2984         111  'o'                                     ; Archivo: LinkedSearchBinaryTree.txt línea: 2270 columna: 25.
      2985         112  'p'                                     ; Archivo: LinkedSearchBinaryTree.txt línea: 2270 columna: 25.
      2986          97  'a'                                     ; Archivo: LinkedSearchBinaryTree.txt línea: 2270 columna: 25.
      2987         114  'r'                                     ; Archivo: LinkedSearchBinaryTree.txt línea: 2270 columna: 25.
      2988         100  'd'                                     ; Archivo: LinkedSearchBinaryTree.txt línea: 2270 columna: 25.
      2989         111  'o'                                     ; Archivo: LinkedSearchBinaryTree.txt línea: 2270 columna: 25.
      2990           0  0                                       ; Archivo: LinkedSearchBinaryTree.txt línea: 2270 columna: 37.
      2991          76  lString38_main_Main: 'L'                ; Archivo: LinkedSearchBinaryTree.txt línea: 2286 columna: 25.
      2992         111  'o'                                     ; Archivo: LinkedSearchBinaryTree.txt línea: 2286 columna: 25.
      2993         114  'r'                                     ; Archivo: LinkedSearchBinaryTree.txt línea: 2286 columna: 25.
      2994         111  'o'                                     ; Archivo: LinkedSearchBinaryTree.txt línea: 2286 columna: 25.
      2995           0  0                                       ; Archivo: LinkedSearchBinaryTree.txt línea: 2286 columna: 33.
      2996          84  lString39_main_Main: 'T'                ; Archivo: LinkedSearchBinaryTree.txt línea: 2302 columna: 25.
      2997         117  'u'                                     ; Archivo: LinkedSearchBinaryTree.txt línea: 2302 columna: 25.
      2998          99  'c'                                     ; Archivo: LinkedSearchBinaryTree.txt línea: 2302 columna: 25.
      2999          97  'a'                                     ; Archivo: LinkedSearchBinaryTree.txt línea: 2302 columna: 25.
      3000         110  'n'                                     ; Archivo: LinkedSearchBinaryTree.txt línea: 2302 columna: 25.
      3001           0  0                                       ; Archivo: LinkedSearchBinaryTree.txt línea: 2302 columna: 34.
      3002          80  lString40_main_Main: 'P'                ; Archivo: LinkedSearchBinaryTree.txt línea: 2318 columna: 25.
      3003         111  'o'                                     ; Archivo: LinkedSearchBinaryTree.txt línea: 2318 columna: 25.
      3004         108  'l'                                     ; Archivo: LinkedSearchBinaryTree.txt línea: 2318 columna: 25.
      3005         108  'l'                                     ; Archivo: LinkedSearchBinaryTree.txt línea: 2318 columna: 25.
      3006         111  'o'                                     ; Archivo: LinkedSearchBinaryTree.txt línea: 2318 columna: 25.
      3007           0  0                                       ; Archivo: LinkedSearchBinaryTree.txt línea: 2318 columna: 34.
      3008          67  lString41_main_Main: 'C'                ; Archivo: LinkedSearchBinaryTree.txt línea: 2334 columna: 25.
      3009          97  'a'                                     ; Archivo: LinkedSearchBinaryTree.txt línea: 2334 columna: 25.
      3010          98  'b'                                     ; Archivo: LinkedSearchBinaryTree.txt línea: 2334 columna: 25.
      3011          97  'a'                                     ; Archivo: LinkedSearchBinaryTree.txt línea: 2334 columna: 25.
      3012         108  'l'                                     ; Archivo: LinkedSearchBinaryTree.txt línea: 2334 columna: 25.
      3013         108  'l'                                     ; Archivo: LinkedSearchBinaryTree.txt línea: 2334 columna: 25.
      3014         111  'o'                                     ; Archivo: LinkedSearchBinaryTree.txt línea: 2334 columna: 25.
      3015           0  0                                       ; Archivo: LinkedSearchBinaryTree.txt línea: 2334 columna: 36.
      3016          86  lString42_main_Main: 'V'                ; Archivo: LinkedSearchBinaryTree.txt línea: 2350 columna: 25.
      3017          97  'a'                                     ; Archivo: LinkedSearchBinaryTree.txt línea: 2350 columna: 25.
      3018          99  'c'                                     ; Archivo: LinkedSearchBinaryTree.txt línea: 2350 columna: 25.
      3019          97  'a'                                     ; Archivo: LinkedSearchBinaryTree.txt línea: 2350 columna: 25.
      3020           0  0                                       ; Archivo: LinkedSearchBinaryTree.txt línea: 2350 columna: 33.
      3021          84  lString43_main_Main: 'T'                ; Archivo: LinkedSearchBinaryTree.txt línea: 2366 columna: 25.
      3022         111  'o'                                     ; Archivo: LinkedSearchBinaryTree.txt línea: 2366 columna: 25.
      3023         114  'r'                                     ; Archivo: LinkedSearchBinaryTree.txt línea: 2366 columna: 25.
      3024         111  'o'                                     ; Archivo: LinkedSearchBinaryTree.txt línea: 2366 columna: 25.
      3025           0  0                                       ; Archivo: LinkedSearchBinaryTree.txt línea: 2366 columna: 33.
      3026          65  lString44_main_Main: 'A'                ; Archivo: LinkedSearchBinaryTree.txt línea: 2382 columna: 25.
      3027         114  'r'                                     ; Archivo: LinkedSearchBinaryTree.txt línea: 2382 columna: 25.
      3028         100  'd'                                     ; Archivo: LinkedSearchBinaryTree.txt línea: 2382 columna: 25.
      3029         105  'i'                                     ; Archivo: LinkedSearchBinaryTree.txt línea: 2382 columna: 25.
      3030         108  'l'                                     ; Archivo: LinkedSearchBinaryTree.txt línea: 2382 columna: 25.
      3031         108  'l'                                     ; Archivo: LinkedSearchBinaryTree.txt línea: 2382 columna: 25.
      3032          97  'a'                                     ; Archivo: LinkedSearchBinaryTree.txt línea: 2382 columna: 25.
      3033           0  0                                       ; Archivo: LinkedSearchBinaryTree.txt línea: 2382 columna: 36.
      3034          67  lString45_main_Main: 'C'                ; Archivo: LinkedSearchBinaryTree.txt línea: 2398 columna: 25.
      3035         111  'o'                                     ; Archivo: LinkedSearchBinaryTree.txt línea: 2398 columna: 25.
      3036         121  'y'                                     ; Archivo: LinkedSearchBinaryTree.txt línea: 2398 columna: 25.
      3037         111  'o'                                     ; Archivo: LinkedSearchBinaryTree.txt línea: 2398 columna: 25.
      3038         116  't'                                     ; Archivo: LinkedSearchBinaryTree.txt línea: 2398 columna: 25.
      3039         101  'e'                                     ; Archivo: LinkedSearchBinaryTree.txt línea: 2398 columna: 25.
      3040           0  0                                       ; Archivo: LinkedSearchBinaryTree.txt línea: 2398 columna: 35.
      3041          76  lString46_main_Main: 'L'                ; Archivo: LinkedSearchBinaryTree.txt línea: 2414 columna: 25.
      3042         111  'o'                                     ; Archivo: LinkedSearchBinaryTree.txt línea: 2414 columna: 25.
      3043          98  'b'                                     ; Archivo: LinkedSearchBinaryTree.txt línea: 2414 columna: 25.
      3044         111  'o'                                     ; Archivo: LinkedSearchBinaryTree.txt línea: 2414 columna: 25.
      3045           0  0                                       ; Archivo: LinkedSearchBinaryTree.txt línea: 2414 columna: 33.

----------- Sección .HEAP ----------------------------------------------------------------
Dirección   Cont.Mem.   Código CeIASM                           Referencia


----------- Sección .STACK (decreciente) --------------------------------------------------
Dirección   Cont.Mem.   Código CeIASM                           Referencia


El volcado de la información de ensamblado, linkeo y carga se completó exitosamente...

